ARM GAS  C:\Users\blue\AppData\Local\Temp\ccY3Oly6.s 			page 1


   1              		.cpu cortex-m7
   2              		.arch armv7e-m
   3              		.fpu fpv5-d16
   4              		.eabi_attribute 28, 1
   5              		.eabi_attribute 20, 1
   6              		.eabi_attribute 21, 1
   7              		.eabi_attribute 23, 3
   8              		.eabi_attribute 24, 1
   9              		.eabi_attribute 25, 1
  10              		.eabi_attribute 26, 1
  11              		.eabi_attribute 30, 1
  12              		.eabi_attribute 34, 1
  13              		.eabi_attribute 18, 4
  14              		.file	"gpio.c"
  15              		.text
  16              	.Ltext0:
  17              		.cfi_sections	.debug_frame
  18              		.section	.text.MX_GPIO_Init,"ax",%progbits
  19              		.align	1
  20              		.global	MX_GPIO_Init
  21              		.syntax unified
  22              		.thumb
  23              		.thumb_func
  25              	MX_GPIO_Init:
  26              	.LFB144:
  27              		.file 1 "Core/Src/gpio.c"
   1:Core/Src/gpio.c **** /* USER CODE BEGIN Header */
   2:Core/Src/gpio.c **** /**
   3:Core/Src/gpio.c ****   ******************************************************************************
   4:Core/Src/gpio.c ****   * @file    gpio.c
   5:Core/Src/gpio.c ****   * @brief   This file provides code for the configuration
   6:Core/Src/gpio.c ****   *          of all used GPIO pins.
   7:Core/Src/gpio.c ****   ******************************************************************************
   8:Core/Src/gpio.c ****   * @attention
   9:Core/Src/gpio.c ****   *
  10:Core/Src/gpio.c ****   * Copyright (c) 2024 STMicroelectronics.
  11:Core/Src/gpio.c ****   * All rights reserved.
  12:Core/Src/gpio.c ****   *
  13:Core/Src/gpio.c ****   * This software is licensed under terms that can be found in the LICENSE file
  14:Core/Src/gpio.c ****   * in the root directory of this software component.
  15:Core/Src/gpio.c ****   * If no LICENSE file comes with this software, it is provided AS-IS.
  16:Core/Src/gpio.c ****   *
  17:Core/Src/gpio.c ****   ******************************************************************************
  18:Core/Src/gpio.c ****   */
  19:Core/Src/gpio.c **** /* USER CODE END Header */
  20:Core/Src/gpio.c **** 
  21:Core/Src/gpio.c **** /* Includes ------------------------------------------------------------------*/
  22:Core/Src/gpio.c **** #include "gpio.h"
  23:Core/Src/gpio.c **** 
  24:Core/Src/gpio.c **** /* USER CODE BEGIN 0 */
  25:Core/Src/gpio.c **** 
  26:Core/Src/gpio.c **** /* USER CODE END 0 */
  27:Core/Src/gpio.c **** 
  28:Core/Src/gpio.c **** /*----------------------------------------------------------------------------*/
  29:Core/Src/gpio.c **** /* Configure GPIO                                                             */
  30:Core/Src/gpio.c **** /*----------------------------------------------------------------------------*/
  31:Core/Src/gpio.c **** /* USER CODE BEGIN 1 */
ARM GAS  C:\Users\blue\AppData\Local\Temp\ccY3Oly6.s 			page 2


  32:Core/Src/gpio.c **** 
  33:Core/Src/gpio.c **** /* USER CODE END 1 */
  34:Core/Src/gpio.c **** 
  35:Core/Src/gpio.c **** /** Configure pins
  36:Core/Src/gpio.c ****      PC15-OSC32_OUT (OSC32_OUT)   ------> RCC_OSC32_OUT
  37:Core/Src/gpio.c ****      PC14-OSC32_IN (OSC32_IN)   ------> RCC_OSC32_IN
  38:Core/Src/gpio.c ****      PH1-OSC_OUT (PH1)   ------> RCC_OSC_OUT
  39:Core/Src/gpio.c ****      PH0-OSC_IN (PH0)   ------> RCC_OSC_IN
  40:Core/Src/gpio.c **** */
  41:Core/Src/gpio.c **** void MX_GPIO_Init(void)
  42:Core/Src/gpio.c **** {
  28              		.loc 1 42 1 view -0
  29              		.cfi_startproc
  30              		@ args = 0, pretend = 0, frame = 48
  31              		@ frame_needed = 0, uses_anonymous_args = 0
  32 0000 70B5     		push	{r4, r5, r6, lr}
  33              	.LCFI0:
  34              		.cfi_def_cfa_offset 16
  35              		.cfi_offset 4, -16
  36              		.cfi_offset 5, -12
  37              		.cfi_offset 6, -8
  38              		.cfi_offset 14, -4
  39 0002 8CB0     		sub	sp, sp, #48
  40              	.LCFI1:
  41              		.cfi_def_cfa_offset 64
  43:Core/Src/gpio.c **** 
  44:Core/Src/gpio.c ****   GPIO_InitTypeDef GPIO_InitStruct = {0};
  42              		.loc 1 44 3 view .LVU1
  43              		.loc 1 44 20 is_stmt 0 view .LVU2
  44 0004 0024     		movs	r4, #0
  45 0006 0794     		str	r4, [sp, #28]
  46 0008 0894     		str	r4, [sp, #32]
  47 000a 0994     		str	r4, [sp, #36]
  48 000c 0A94     		str	r4, [sp, #40]
  49 000e 0B94     		str	r4, [sp, #44]
  45:Core/Src/gpio.c **** 
  46:Core/Src/gpio.c ****   /* GPIO Ports Clock Enable */
  47:Core/Src/gpio.c ****   __HAL_RCC_GPIOI_CLK_ENABLE();
  50              		.loc 1 47 3 is_stmt 1 view .LVU3
  51              	.LBB2:
  52              		.loc 1 47 3 view .LVU4
  53              		.loc 1 47 3 view .LVU5
  54 0010 434B     		ldr	r3, .L3
  55 0012 D3F8E020 		ldr	r2, [r3, #224]
  56 0016 42F48072 		orr	r2, r2, #256
  57 001a C3F8E020 		str	r2, [r3, #224]
  58              		.loc 1 47 3 view .LVU6
  59 001e D3F8E020 		ldr	r2, [r3, #224]
  60 0022 02F48072 		and	r2, r2, #256
  61 0026 0192     		str	r2, [sp, #4]
  62              		.loc 1 47 3 view .LVU7
  63 0028 019A     		ldr	r2, [sp, #4]
  64              	.LBE2:
  65              		.loc 1 47 3 view .LVU8
  48:Core/Src/gpio.c ****   __HAL_RCC_GPIOB_CLK_ENABLE();
  66              		.loc 1 48 3 view .LVU9
  67              	.LBB3:
ARM GAS  C:\Users\blue\AppData\Local\Temp\ccY3Oly6.s 			page 3


  68              		.loc 1 48 3 view .LVU10
  69              		.loc 1 48 3 view .LVU11
  70 002a D3F8E020 		ldr	r2, [r3, #224]
  71 002e 42F00202 		orr	r2, r2, #2
  72 0032 C3F8E020 		str	r2, [r3, #224]
  73              		.loc 1 48 3 view .LVU12
  74 0036 D3F8E020 		ldr	r2, [r3, #224]
  75 003a 02F00202 		and	r2, r2, #2
  76 003e 0292     		str	r2, [sp, #8]
  77              		.loc 1 48 3 view .LVU13
  78 0040 029A     		ldr	r2, [sp, #8]
  79              	.LBE3:
  80              		.loc 1 48 3 view .LVU14
  49:Core/Src/gpio.c ****   __HAL_RCC_GPIOD_CLK_ENABLE();
  81              		.loc 1 49 3 view .LVU15
  82              	.LBB4:
  83              		.loc 1 49 3 view .LVU16
  84              		.loc 1 49 3 view .LVU17
  85 0042 D3F8E020 		ldr	r2, [r3, #224]
  86 0046 42F00802 		orr	r2, r2, #8
  87 004a C3F8E020 		str	r2, [r3, #224]
  88              		.loc 1 49 3 view .LVU18
  89 004e D3F8E020 		ldr	r2, [r3, #224]
  90 0052 02F00802 		and	r2, r2, #8
  91 0056 0392     		str	r2, [sp, #12]
  92              		.loc 1 49 3 view .LVU19
  93 0058 039A     		ldr	r2, [sp, #12]
  94              	.LBE4:
  95              		.loc 1 49 3 view .LVU20
  50:Core/Src/gpio.c ****   __HAL_RCC_GPIOC_CLK_ENABLE();
  96              		.loc 1 50 3 view .LVU21
  97              	.LBB5:
  98              		.loc 1 50 3 view .LVU22
  99              		.loc 1 50 3 view .LVU23
 100 005a D3F8E020 		ldr	r2, [r3, #224]
 101 005e 42F00402 		orr	r2, r2, #4
 102 0062 C3F8E020 		str	r2, [r3, #224]
 103              		.loc 1 50 3 view .LVU24
 104 0066 D3F8E020 		ldr	r2, [r3, #224]
 105 006a 02F00402 		and	r2, r2, #4
 106 006e 0492     		str	r2, [sp, #16]
 107              		.loc 1 50 3 view .LVU25
 108 0070 049A     		ldr	r2, [sp, #16]
 109              	.LBE5:
 110              		.loc 1 50 3 view .LVU26
  51:Core/Src/gpio.c ****   __HAL_RCC_GPIOA_CLK_ENABLE();
 111              		.loc 1 51 3 view .LVU27
 112              	.LBB6:
 113              		.loc 1 51 3 view .LVU28
 114              		.loc 1 51 3 view .LVU29
 115 0072 D3F8E020 		ldr	r2, [r3, #224]
 116 0076 42F00102 		orr	r2, r2, #1
 117 007a C3F8E020 		str	r2, [r3, #224]
 118              		.loc 1 51 3 view .LVU30
 119 007e D3F8E020 		ldr	r2, [r3, #224]
 120 0082 02F00102 		and	r2, r2, #1
 121 0086 0592     		str	r2, [sp, #20]
ARM GAS  C:\Users\blue\AppData\Local\Temp\ccY3Oly6.s 			page 4


 122              		.loc 1 51 3 view .LVU31
 123 0088 059A     		ldr	r2, [sp, #20]
 124              	.LBE6:
 125              		.loc 1 51 3 view .LVU32
  52:Core/Src/gpio.c ****   __HAL_RCC_GPIOH_CLK_ENABLE();
 126              		.loc 1 52 3 view .LVU33
 127              	.LBB7:
 128              		.loc 1 52 3 view .LVU34
 129              		.loc 1 52 3 view .LVU35
 130 008a D3F8E020 		ldr	r2, [r3, #224]
 131 008e 42F08002 		orr	r2, r2, #128
 132 0092 C3F8E020 		str	r2, [r3, #224]
 133              		.loc 1 52 3 view .LVU36
 134 0096 D3F8E030 		ldr	r3, [r3, #224]
 135 009a 03F08003 		and	r3, r3, #128
 136 009e 0693     		str	r3, [sp, #24]
 137              		.loc 1 52 3 view .LVU37
 138 00a0 069B     		ldr	r3, [sp, #24]
 139              	.LBE7:
 140              		.loc 1 52 3 view .LVU38
  53:Core/Src/gpio.c **** 
  54:Core/Src/gpio.c ****   /*Configure GPIO pin Output Level */
  55:Core/Src/gpio.c ****   HAL_GPIO_WritePin(GPIOI, RELAY_GPIO_Pin|MP3_VIRTUAL_UART_TX_Pin, GPIO_PIN_RESET);
 141              		.loc 1 55 3 view .LVU39
 142 00a2 204E     		ldr	r6, .L3+4
 143 00a4 2246     		mov	r2, r4
 144 00a6 4FF4A071 		mov	r1, #320
 145 00aa 3046     		mov	r0, r6
 146 00ac FFF7FEFF 		bl	HAL_GPIO_WritePin
 147              	.LVL0:
  56:Core/Src/gpio.c **** 
  57:Core/Src/gpio.c ****   /*Configure GPIO pin : PtPin */
  58:Core/Src/gpio.c ****   GPIO_InitStruct.Pin = RELAY_GPIO_Pin;
 148              		.loc 1 58 3 view .LVU40
 149              		.loc 1 58 23 is_stmt 0 view .LVU41
 150 00b0 4023     		movs	r3, #64
 151 00b2 0793     		str	r3, [sp, #28]
  59:Core/Src/gpio.c ****   GPIO_InitStruct.Mode = GPIO_MODE_OUTPUT_PP;
 152              		.loc 1 59 3 is_stmt 1 view .LVU42
 153              		.loc 1 59 24 is_stmt 0 view .LVU43
 154 00b4 0125     		movs	r5, #1
 155 00b6 0895     		str	r5, [sp, #32]
  60:Core/Src/gpio.c ****   GPIO_InitStruct.Pull = GPIO_NOPULL;
 156              		.loc 1 60 3 is_stmt 1 view .LVU44
 157              		.loc 1 60 24 is_stmt 0 view .LVU45
 158 00b8 0994     		str	r4, [sp, #36]
  61:Core/Src/gpio.c ****   GPIO_InitStruct.Speed = GPIO_SPEED_FREQ_LOW;
 159              		.loc 1 61 3 is_stmt 1 view .LVU46
 160              		.loc 1 61 25 is_stmt 0 view .LVU47
 161 00ba 0A94     		str	r4, [sp, #40]
  62:Core/Src/gpio.c ****   HAL_GPIO_Init(RELAY_GPIO_GPIO_Port, &GPIO_InitStruct);
 162              		.loc 1 62 3 is_stmt 1 view .LVU48
 163 00bc 07A9     		add	r1, sp, #28
 164 00be 3046     		mov	r0, r6
 165 00c0 FFF7FEFF 		bl	HAL_GPIO_Init
 166              	.LVL1:
  63:Core/Src/gpio.c **** 
ARM GAS  C:\Users\blue\AppData\Local\Temp\ccY3Oly6.s 			page 5


  64:Core/Src/gpio.c ****   /*Configure GPIO pins : PIPin PIPin PIPin PIPin */
  65:Core/Src/gpio.c ****   GPIO_InitStruct.Pin = WATER_PE_GPIO_Pin|RIGHT_PE_GPIO_Pin|LEFT_PE_GPIO_Pin|MP3_VIRTUAL_UART_RX_Pi
 167              		.loc 1 65 3 view .LVU49
 168              		.loc 1 65 23 is_stmt 0 view .LVU50
 169 00c4 4FF40E73 		mov	r3, #568
 170 00c8 0793     		str	r3, [sp, #28]
  66:Core/Src/gpio.c ****   GPIO_InitStruct.Mode = GPIO_MODE_INPUT;
 171              		.loc 1 66 3 is_stmt 1 view .LVU51
 172              		.loc 1 66 24 is_stmt 0 view .LVU52
 173 00ca 0894     		str	r4, [sp, #32]
  67:Core/Src/gpio.c ****   GPIO_InitStruct.Pull = GPIO_PULLUP;
 174              		.loc 1 67 3 is_stmt 1 view .LVU53
 175              		.loc 1 67 24 is_stmt 0 view .LVU54
 176 00cc 0995     		str	r5, [sp, #36]
  68:Core/Src/gpio.c ****   HAL_GPIO_Init(GPIOI, &GPIO_InitStruct);
 177              		.loc 1 68 3 is_stmt 1 view .LVU55
 178 00ce 07A9     		add	r1, sp, #28
 179 00d0 3046     		mov	r0, r6
 180 00d2 FFF7FEFF 		bl	HAL_GPIO_Init
 181              	.LVL2:
  69:Core/Src/gpio.c **** 
  70:Core/Src/gpio.c ****   /*Configure GPIO pins : PDPin PDPin PDPin PDPin
  71:Core/Src/gpio.c ****                            PDPin */
  72:Core/Src/gpio.c ****   GPIO_InitStruct.Pin = GRAY12_GPIO_Pin|GRAY11_GPIO_Pin|GRAY13_GPIO_Pin|GRAY10_GPIO_Pin
 182              		.loc 1 72 3 view .LVU56
 183              		.loc 1 72 23 is_stmt 0 view .LVU57
 184 00d6 F823     		movs	r3, #248
 185 00d8 0793     		str	r3, [sp, #28]
  73:Core/Src/gpio.c ****                           |GRAY14_GPIO_Pin;
  74:Core/Src/gpio.c ****   GPIO_InitStruct.Mode = GPIO_MODE_INPUT;
 186              		.loc 1 74 3 is_stmt 1 view .LVU58
 187              		.loc 1 74 24 is_stmt 0 view .LVU59
 188 00da 0894     		str	r4, [sp, #32]
  75:Core/Src/gpio.c ****   GPIO_InitStruct.Pull = GPIO_PULLUP;
 189              		.loc 1 75 3 is_stmt 1 view .LVU60
 190              		.loc 1 75 24 is_stmt 0 view .LVU61
 191 00dc 0995     		str	r5, [sp, #36]
  76:Core/Src/gpio.c ****   HAL_GPIO_Init(GPIOD, &GPIO_InitStruct);
 192              		.loc 1 76 3 is_stmt 1 view .LVU62
 193 00de 07A9     		add	r1, sp, #28
 194 00e0 1148     		ldr	r0, .L3+8
 195 00e2 FFF7FEFF 		bl	HAL_GPIO_Init
 196              	.LVL3:
  77:Core/Src/gpio.c **** 
  78:Core/Src/gpio.c ****   /*Configure GPIO pins : PBPin PBPin PBPin PBPin */
  79:Core/Src/gpio.c ****   GPIO_InitStruct.Pin = GRAY2_GPIO_Pin|GRAY1_GPIO_Pin|GRAY4_GPIO_Pin|GRAY3_GPIO_Pin;
 197              		.loc 1 79 3 view .LVU63
 198              		.loc 1 79 23 is_stmt 0 view .LVU64
 199 00e6 4CF20C03 		movw	r3, #49164
 200 00ea 0793     		str	r3, [sp, #28]
  80:Core/Src/gpio.c ****   GPIO_InitStruct.Mode = GPIO_MODE_INPUT;
 201              		.loc 1 80 3 is_stmt 1 view .LVU65
 202              		.loc 1 80 24 is_stmt 0 view .LVU66
 203 00ec 0894     		str	r4, [sp, #32]
  81:Core/Src/gpio.c ****   GPIO_InitStruct.Pull = GPIO_PULLUP;
 204              		.loc 1 81 3 is_stmt 1 view .LVU67
 205              		.loc 1 81 24 is_stmt 0 view .LVU68
ARM GAS  C:\Users\blue\AppData\Local\Temp\ccY3Oly6.s 			page 6


 206 00ee 0995     		str	r5, [sp, #36]
  82:Core/Src/gpio.c ****   HAL_GPIO_Init(GPIOB, &GPIO_InitStruct);
 207              		.loc 1 82 3 is_stmt 1 view .LVU69
 208 00f0 07A9     		add	r1, sp, #28
 209 00f2 0E48     		ldr	r0, .L3+12
 210 00f4 FFF7FEFF 		bl	HAL_GPIO_Init
 211              	.LVL4:
  83:Core/Src/gpio.c **** 
  84:Core/Src/gpio.c ****   /*Configure GPIO pin : PtPin */
  85:Core/Src/gpio.c ****   GPIO_InitStruct.Pin = MP3_VIRTUAL_UART_TX_Pin;
 212              		.loc 1 85 3 view .LVU70
 213              		.loc 1 85 23 is_stmt 0 view .LVU71
 214 00f8 4FF48073 		mov	r3, #256
 215 00fc 0793     		str	r3, [sp, #28]
  86:Core/Src/gpio.c ****   GPIO_InitStruct.Mode = GPIO_MODE_OUTPUT_PP;
 216              		.loc 1 86 3 is_stmt 1 view .LVU72
 217              		.loc 1 86 24 is_stmt 0 view .LVU73
 218 00fe 0895     		str	r5, [sp, #32]
  87:Core/Src/gpio.c ****   GPIO_InitStruct.Pull = GPIO_PULLUP;
 219              		.loc 1 87 3 is_stmt 1 view .LVU74
 220              		.loc 1 87 24 is_stmt 0 view .LVU75
 221 0100 0995     		str	r5, [sp, #36]
  88:Core/Src/gpio.c ****   GPIO_InitStruct.Speed = GPIO_SPEED_FREQ_LOW;
 222              		.loc 1 88 3 is_stmt 1 view .LVU76
 223              		.loc 1 88 25 is_stmt 0 view .LVU77
 224 0102 0A94     		str	r4, [sp, #40]
  89:Core/Src/gpio.c ****   HAL_GPIO_Init(MP3_VIRTUAL_UART_TX_GPIO_Port, &GPIO_InitStruct);
 225              		.loc 1 89 3 is_stmt 1 view .LVU78
 226 0104 07A9     		add	r1, sp, #28
 227 0106 3046     		mov	r0, r6
 228 0108 FFF7FEFF 		bl	HAL_GPIO_Init
 229              	.LVL5:
  90:Core/Src/gpio.c **** 
  91:Core/Src/gpio.c ****   /*Configure GPIO pins : PCPin PCPin PCPin PCPin
  92:Core/Src/gpio.c ****                            PCPin */
  93:Core/Src/gpio.c ****   GPIO_InitStruct.Pin = GRAY5_GPIO_Pin|GRAY6_GPIO_Pin|GRAY7_GPIO_Pin|GRAY8_GPIO_Pin
 230              		.loc 1 93 3 view .LVU79
 231              		.loc 1 93 23 is_stmt 0 view .LVU80
 232 010c 3E23     		movs	r3, #62
 233 010e 0793     		str	r3, [sp, #28]
  94:Core/Src/gpio.c ****                           |GRAY9_GPIO_Pin;
  95:Core/Src/gpio.c ****   GPIO_InitStruct.Mode = GPIO_MODE_INPUT;
 234              		.loc 1 95 3 is_stmt 1 view .LVU81
 235              		.loc 1 95 24 is_stmt 0 view .LVU82
 236 0110 0894     		str	r4, [sp, #32]
  96:Core/Src/gpio.c ****   GPIO_InitStruct.Pull = GPIO_PULLUP;
 237              		.loc 1 96 3 is_stmt 1 view .LVU83
 238              		.loc 1 96 24 is_stmt 0 view .LVU84
 239 0112 0995     		str	r5, [sp, #36]
  97:Core/Src/gpio.c ****   HAL_GPIO_Init(GPIOC, &GPIO_InitStruct);
 240              		.loc 1 97 3 is_stmt 1 view .LVU85
 241 0114 07A9     		add	r1, sp, #28
 242 0116 0648     		ldr	r0, .L3+16
 243 0118 FFF7FEFF 		bl	HAL_GPIO_Init
 244              	.LVL6:
  98:Core/Src/gpio.c **** 
  99:Core/Src/gpio.c **** }
ARM GAS  C:\Users\blue\AppData\Local\Temp\ccY3Oly6.s 			page 7


 245              		.loc 1 99 1 is_stmt 0 view .LVU86
 246 011c 0CB0     		add	sp, sp, #48
 247              	.LCFI2:
 248              		.cfi_def_cfa_offset 16
 249              		@ sp needed
 250 011e 70BD     		pop	{r4, r5, r6, pc}
 251              	.L4:
 252              		.align	2
 253              	.L3:
 254 0120 00440258 		.word	1476543488
 255 0124 00200258 		.word	1476534272
 256 0128 000C0258 		.word	1476529152
 257 012c 00040258 		.word	1476527104
 258 0130 00080258 		.word	1476528128
 259              		.cfi_endproc
 260              	.LFE144:
 262              		.text
 263              	.Letext0:
 264              		.file 2 "d:\\rm\\arm-gnu-toolchian\\arm-none-eabi\\include\\machine\\_default_types.h"
 265              		.file 3 "d:\\rm\\arm-gnu-toolchian\\arm-none-eabi\\include\\sys\\_stdint.h"
 266              		.file 4 "Drivers/CMSIS/Device/ST/STM32H7xx/Include/stm32h743xx.h"
 267              		.file 5 "Drivers/STM32H7xx_HAL_Driver/Inc/stm32h7xx_hal_gpio.h"
ARM GAS  C:\Users\blue\AppData\Local\Temp\ccY3Oly6.s 			page 8

