ARM GAS  C:\Users\blue\AppData\Local\Temp\ccjNjakL.s 			page 1


   1              		.cpu cortex-m7
   2              		.arch armv7e-m
   3              		.fpu fpv5-d16
   4              		.eabi_attribute 28, 1
   5              		.eabi_attribute 20, 1
   6              		.eabi_attribute 21, 1
   7              		.eabi_attribute 23, 3
   8              		.eabi_attribute 24, 1
   9              		.eabi_attribute 25, 1
  10              		.eabi_attribute 26, 1
  11              		.eabi_attribute 30, 1
  12              		.eabi_attribute 34, 1
  13              		.eabi_attribute 18, 4
  14              		.file	"usart.c"
  15              		.text
  16              	.Ltext0:
  17              		.cfi_sections	.debug_frame
  18              		.section	.text.MX_UART4_Init,"ax",%progbits
  19              		.align	1
  20              		.global	MX_UART4_Init
  21              		.syntax unified
  22              		.thumb
  23              		.thumb_func
  25              	MX_UART4_Init:
  26              	.LFB144:
  27              		.file 1 "Core/Src/usart.c"
   1:Core/Src/usart.c **** /* USER CODE BEGIN Header */
   2:Core/Src/usart.c **** /**
   3:Core/Src/usart.c ****  ******************************************************************************
   4:Core/Src/usart.c ****  * @file    usart.c
   5:Core/Src/usart.c ****  * @brief   This file provides code for the configuration
   6:Core/Src/usart.c ****  *          of the USART instances.
   7:Core/Src/usart.c ****  ******************************************************************************
   8:Core/Src/usart.c ****  * @attention
   9:Core/Src/usart.c ****  *
  10:Core/Src/usart.c ****  * Copyright (c) 2024 STMicroelectronics.
  11:Core/Src/usart.c ****  * All rights reserved.
  12:Core/Src/usart.c ****  *
  13:Core/Src/usart.c ****  * This software is licensed under terms that can be found in the LICENSE file
  14:Core/Src/usart.c ****  * in the root directory of this software component.
  15:Core/Src/usart.c ****  * If no LICENSE file comes with this software, it is provided AS-IS.
  16:Core/Src/usart.c ****  *
  17:Core/Src/usart.c ****  ******************************************************************************
  18:Core/Src/usart.c ****  */
  19:Core/Src/usart.c **** /* USER CODE END Header */
  20:Core/Src/usart.c **** /* Includes ------------------------------------------------------------------*/
  21:Core/Src/usart.c **** #include "usart.h"
  22:Core/Src/usart.c **** 
  23:Core/Src/usart.c **** /* USER CODE BEGIN 0 */
  24:Core/Src/usart.c **** 
  25:Core/Src/usart.c **** /* USER CODE END 0 */
  26:Core/Src/usart.c **** 
  27:Core/Src/usart.c **** UART_HandleTypeDef huart4;
  28:Core/Src/usart.c **** UART_HandleTypeDef huart5;
  29:Core/Src/usart.c **** UART_HandleTypeDef huart1;
  30:Core/Src/usart.c **** UART_HandleTypeDef huart2;
  31:Core/Src/usart.c **** UART_HandleTypeDef huart3;
ARM GAS  C:\Users\blue\AppData\Local\Temp\ccjNjakL.s 			page 2


  32:Core/Src/usart.c **** DMA_HandleTypeDef hdma_uart4_rx;
  33:Core/Src/usart.c **** DMA_HandleTypeDef hdma_uart5_rx;
  34:Core/Src/usart.c **** DMA_HandleTypeDef hdma_usart1_rx;
  35:Core/Src/usart.c **** DMA_HandleTypeDef hdma_usart2_rx;
  36:Core/Src/usart.c **** DMA_HandleTypeDef hdma_usart3_rx;
  37:Core/Src/usart.c **** 
  38:Core/Src/usart.c **** /* UART4 init function */
  39:Core/Src/usart.c **** void MX_UART4_Init(void)
  40:Core/Src/usart.c **** {
  28              		.loc 1 40 1 view -0
  29              		.cfi_startproc
  30              		@ args = 0, pretend = 0, frame = 0
  31              		@ frame_needed = 0, uses_anonymous_args = 0
  32 0000 08B5     		push	{r3, lr}
  33              	.LCFI0:
  34              		.cfi_def_cfa_offset 8
  35              		.cfi_offset 3, -8
  36              		.cfi_offset 14, -4
  41:Core/Src/usart.c **** 
  42:Core/Src/usart.c ****   /* USER CODE BEGIN UART4_Init 0 */
  43:Core/Src/usart.c **** 
  44:Core/Src/usart.c ****   /* USER CODE END UART4_Init 0 */
  45:Core/Src/usart.c **** 
  46:Core/Src/usart.c ****   /* USER CODE BEGIN UART4_Init 1 */
  47:Core/Src/usart.c **** 
  48:Core/Src/usart.c ****   /* USER CODE END UART4_Init 1 */
  49:Core/Src/usart.c ****   huart4.Instance = UART4;
  37              		.loc 1 49 3 view .LVU1
  38              		.loc 1 49 19 is_stmt 0 view .LVU2
  39 0002 1748     		ldr	r0, .L11
  40 0004 174B     		ldr	r3, .L11+4
  41 0006 0360     		str	r3, [r0]
  50:Core/Src/usart.c ****   huart4.Init.BaudRate = 115200;
  42              		.loc 1 50 3 is_stmt 1 view .LVU3
  43              		.loc 1 50 24 is_stmt 0 view .LVU4
  44 0008 4FF4E133 		mov	r3, #115200
  45 000c 4360     		str	r3, [r0, #4]
  51:Core/Src/usart.c ****   huart4.Init.WordLength = UART_WORDLENGTH_8B;
  46              		.loc 1 51 3 is_stmt 1 view .LVU5
  47              		.loc 1 51 26 is_stmt 0 view .LVU6
  48 000e 0023     		movs	r3, #0
  49 0010 8360     		str	r3, [r0, #8]
  52:Core/Src/usart.c ****   huart4.Init.StopBits = UART_STOPBITS_1;
  50              		.loc 1 52 3 is_stmt 1 view .LVU7
  51              		.loc 1 52 24 is_stmt 0 view .LVU8
  52 0012 C360     		str	r3, [r0, #12]
  53:Core/Src/usart.c ****   huart4.Init.Parity = UART_PARITY_NONE;
  53              		.loc 1 53 3 is_stmt 1 view .LVU9
  54              		.loc 1 53 22 is_stmt 0 view .LVU10
  55 0014 0361     		str	r3, [r0, #16]
  54:Core/Src/usart.c ****   huart4.Init.Mode = UART_MODE_RX;
  56              		.loc 1 54 3 is_stmt 1 view .LVU11
  57              		.loc 1 54 20 is_stmt 0 view .LVU12
  58 0016 0422     		movs	r2, #4
  59 0018 4261     		str	r2, [r0, #20]
  55:Core/Src/usart.c ****   huart4.Init.HwFlowCtl = UART_HWCONTROL_NONE;
  60              		.loc 1 55 3 is_stmt 1 view .LVU13
ARM GAS  C:\Users\blue\AppData\Local\Temp\ccjNjakL.s 			page 3


  61              		.loc 1 55 25 is_stmt 0 view .LVU14
  62 001a 8361     		str	r3, [r0, #24]
  56:Core/Src/usart.c ****   huart4.Init.OverSampling = UART_OVERSAMPLING_16;
  63              		.loc 1 56 3 is_stmt 1 view .LVU15
  64              		.loc 1 56 28 is_stmt 0 view .LVU16
  65 001c C361     		str	r3, [r0, #28]
  57:Core/Src/usart.c ****   huart4.Init.OneBitSampling = UART_ONE_BIT_SAMPLE_DISABLE;
  66              		.loc 1 57 3 is_stmt 1 view .LVU17
  67              		.loc 1 57 30 is_stmt 0 view .LVU18
  68 001e 0362     		str	r3, [r0, #32]
  58:Core/Src/usart.c ****   huart4.Init.ClockPrescaler = UART_PRESCALER_DIV1;
  69              		.loc 1 58 3 is_stmt 1 view .LVU19
  70              		.loc 1 58 30 is_stmt 0 view .LVU20
  71 0020 4362     		str	r3, [r0, #36]
  59:Core/Src/usart.c ****   huart4.AdvancedInit.AdvFeatureInit = UART_ADVFEATURE_NO_INIT;
  72              		.loc 1 59 3 is_stmt 1 view .LVU21
  73              		.loc 1 59 38 is_stmt 0 view .LVU22
  74 0022 8362     		str	r3, [r0, #40]
  60:Core/Src/usart.c ****   if (HAL_UART_Init(&huart4) != HAL_OK)
  75              		.loc 1 60 3 is_stmt 1 view .LVU23
  76              		.loc 1 60 7 is_stmt 0 view .LVU24
  77 0024 FFF7FEFF 		bl	HAL_UART_Init
  78              	.LVL0:
  79              		.loc 1 60 6 view .LVU25
  80 0028 70B9     		cbnz	r0, .L7
  81              	.L2:
  61:Core/Src/usart.c ****   {
  62:Core/Src/usart.c ****     Error_Handler();
  63:Core/Src/usart.c ****   }
  64:Core/Src/usart.c ****   if (HAL_UARTEx_SetTxFifoThreshold(&huart4, UART_TXFIFO_THRESHOLD_1_8) != HAL_OK)
  82              		.loc 1 64 3 is_stmt 1 view .LVU26
  83              		.loc 1 64 7 is_stmt 0 view .LVU27
  84 002a 0021     		movs	r1, #0
  85 002c 0C48     		ldr	r0, .L11
  86 002e FFF7FEFF 		bl	HAL_UARTEx_SetTxFifoThreshold
  87              	.LVL1:
  88              		.loc 1 64 6 view .LVU28
  89 0032 60B9     		cbnz	r0, .L8
  90              	.L3:
  65:Core/Src/usart.c ****   {
  66:Core/Src/usart.c ****     Error_Handler();
  67:Core/Src/usart.c ****   }
  68:Core/Src/usart.c ****   if (HAL_UARTEx_SetRxFifoThreshold(&huart4, UART_RXFIFO_THRESHOLD_1_8) != HAL_OK)
  91              		.loc 1 68 3 is_stmt 1 view .LVU29
  92              		.loc 1 68 7 is_stmt 0 view .LVU30
  93 0034 0021     		movs	r1, #0
  94 0036 0A48     		ldr	r0, .L11
  95 0038 FFF7FEFF 		bl	HAL_UARTEx_SetRxFifoThreshold
  96              	.LVL2:
  97              		.loc 1 68 6 view .LVU31
  98 003c 50B9     		cbnz	r0, .L9
  99              	.L4:
  69:Core/Src/usart.c ****   {
  70:Core/Src/usart.c ****     Error_Handler();
  71:Core/Src/usart.c ****   }
  72:Core/Src/usart.c ****   if (HAL_UARTEx_DisableFifoMode(&huart4) != HAL_OK)
 100              		.loc 1 72 3 is_stmt 1 view .LVU32
ARM GAS  C:\Users\blue\AppData\Local\Temp\ccjNjakL.s 			page 4


 101              		.loc 1 72 7 is_stmt 0 view .LVU33
 102 003e 0848     		ldr	r0, .L11
 103 0040 FFF7FEFF 		bl	HAL_UARTEx_DisableFifoMode
 104              	.LVL3:
 105              		.loc 1 72 6 view .LVU34
 106 0044 48B9     		cbnz	r0, .L10
 107              	.L1:
  73:Core/Src/usart.c ****   {
  74:Core/Src/usart.c ****     Error_Handler();
  75:Core/Src/usart.c ****   }
  76:Core/Src/usart.c ****   /* USER CODE BEGIN UART4_Init 2 */
  77:Core/Src/usart.c **** 
  78:Core/Src/usart.c ****   /* USER CODE END UART4_Init 2 */
  79:Core/Src/usart.c **** 
  80:Core/Src/usart.c **** }
 108              		.loc 1 80 1 view .LVU35
 109 0046 08BD     		pop	{r3, pc}
 110              	.L7:
  62:Core/Src/usart.c ****   }
 111              		.loc 1 62 5 is_stmt 1 view .LVU36
 112 0048 FFF7FEFF 		bl	Error_Handler
 113              	.LVL4:
 114 004c EDE7     		b	.L2
 115              	.L8:
  66:Core/Src/usart.c ****   }
 116              		.loc 1 66 5 view .LVU37
 117 004e FFF7FEFF 		bl	Error_Handler
 118              	.LVL5:
 119 0052 EFE7     		b	.L3
 120              	.L9:
  70:Core/Src/usart.c ****   }
 121              		.loc 1 70 5 view .LVU38
 122 0054 FFF7FEFF 		bl	Error_Handler
 123              	.LVL6:
 124 0058 F1E7     		b	.L4
 125              	.L10:
  74:Core/Src/usart.c ****   }
 126              		.loc 1 74 5 view .LVU39
 127 005a FFF7FEFF 		bl	Error_Handler
 128              	.LVL7:
 129              		.loc 1 80 1 is_stmt 0 view .LVU40
 130 005e F2E7     		b	.L1
 131              	.L12:
 132              		.align	2
 133              	.L11:
 134 0060 00000000 		.word	.LANCHOR0
 135 0064 004C0040 		.word	1073761280
 136              		.cfi_endproc
 137              	.LFE144:
 139              		.section	.text.MX_UART5_Init,"ax",%progbits
 140              		.align	1
 141              		.global	MX_UART5_Init
 142              		.syntax unified
 143              		.thumb
 144              		.thumb_func
 146              	MX_UART5_Init:
 147              	.LFB145:
ARM GAS  C:\Users\blue\AppData\Local\Temp\ccjNjakL.s 			page 5


  81:Core/Src/usart.c **** /* UART5 init function */
  82:Core/Src/usart.c **** void MX_UART5_Init(void)
  83:Core/Src/usart.c **** {
 148              		.loc 1 83 1 is_stmt 1 view -0
 149              		.cfi_startproc
 150              		@ args = 0, pretend = 0, frame = 0
 151              		@ frame_needed = 0, uses_anonymous_args = 0
 152 0000 08B5     		push	{r3, lr}
 153              	.LCFI1:
 154              		.cfi_def_cfa_offset 8
 155              		.cfi_offset 3, -8
 156              		.cfi_offset 14, -4
  84:Core/Src/usart.c **** 
  85:Core/Src/usart.c ****   /* USER CODE BEGIN UART5_Init 0 */
  86:Core/Src/usart.c **** 
  87:Core/Src/usart.c ****   /* USER CODE END UART5_Init 0 */
  88:Core/Src/usart.c **** 
  89:Core/Src/usart.c ****   /* USER CODE BEGIN UART5_Init 1 */
  90:Core/Src/usart.c **** 
  91:Core/Src/usart.c ****   /* USER CODE END UART5_Init 1 */
  92:Core/Src/usart.c ****   huart5.Instance = UART5;
 157              		.loc 1 92 3 view .LVU42
 158              		.loc 1 92 19 is_stmt 0 view .LVU43
 159 0002 1748     		ldr	r0, .L23
 160 0004 174B     		ldr	r3, .L23+4
 161 0006 0360     		str	r3, [r0]
  93:Core/Src/usart.c ****   huart5.Init.BaudRate = 921600;
 162              		.loc 1 93 3 is_stmt 1 view .LVU44
 163              		.loc 1 93 24 is_stmt 0 view .LVU45
 164 0008 4FF46123 		mov	r3, #921600
 165 000c 4360     		str	r3, [r0, #4]
  94:Core/Src/usart.c ****   huart5.Init.WordLength = UART_WORDLENGTH_8B;
 166              		.loc 1 94 3 is_stmt 1 view .LVU46
 167              		.loc 1 94 26 is_stmt 0 view .LVU47
 168 000e 0023     		movs	r3, #0
 169 0010 8360     		str	r3, [r0, #8]
  95:Core/Src/usart.c ****   huart5.Init.StopBits = UART_STOPBITS_1;
 170              		.loc 1 95 3 is_stmt 1 view .LVU48
 171              		.loc 1 95 24 is_stmt 0 view .LVU49
 172 0012 C360     		str	r3, [r0, #12]
  96:Core/Src/usart.c ****   huart5.Init.Parity = UART_PARITY_NONE;
 173              		.loc 1 96 3 is_stmt 1 view .LVU50
 174              		.loc 1 96 22 is_stmt 0 view .LVU51
 175 0014 0361     		str	r3, [r0, #16]
  97:Core/Src/usart.c ****   huart5.Init.Mode = UART_MODE_RX;
 176              		.loc 1 97 3 is_stmt 1 view .LVU52
 177              		.loc 1 97 20 is_stmt 0 view .LVU53
 178 0016 0422     		movs	r2, #4
 179 0018 4261     		str	r2, [r0, #20]
  98:Core/Src/usart.c ****   huart5.Init.HwFlowCtl = UART_HWCONTROL_NONE;
 180              		.loc 1 98 3 is_stmt 1 view .LVU54
 181              		.loc 1 98 25 is_stmt 0 view .LVU55
 182 001a 8361     		str	r3, [r0, #24]
  99:Core/Src/usart.c ****   huart5.Init.OverSampling = UART_OVERSAMPLING_16;
 183              		.loc 1 99 3 is_stmt 1 view .LVU56
 184              		.loc 1 99 28 is_stmt 0 view .LVU57
 185 001c C361     		str	r3, [r0, #28]
ARM GAS  C:\Users\blue\AppData\Local\Temp\ccjNjakL.s 			page 6


 100:Core/Src/usart.c ****   huart5.Init.OneBitSampling = UART_ONE_BIT_SAMPLE_DISABLE;
 186              		.loc 1 100 3 is_stmt 1 view .LVU58
 187              		.loc 1 100 30 is_stmt 0 view .LVU59
 188 001e 0362     		str	r3, [r0, #32]
 101:Core/Src/usart.c ****   huart5.Init.ClockPrescaler = UART_PRESCALER_DIV1;
 189              		.loc 1 101 3 is_stmt 1 view .LVU60
 190              		.loc 1 101 30 is_stmt 0 view .LVU61
 191 0020 4362     		str	r3, [r0, #36]
 102:Core/Src/usart.c ****   huart5.AdvancedInit.AdvFeatureInit = UART_ADVFEATURE_NO_INIT;
 192              		.loc 1 102 3 is_stmt 1 view .LVU62
 193              		.loc 1 102 38 is_stmt 0 view .LVU63
 194 0022 8362     		str	r3, [r0, #40]
 103:Core/Src/usart.c ****   if (HAL_UART_Init(&huart5) != HAL_OK)
 195              		.loc 1 103 3 is_stmt 1 view .LVU64
 196              		.loc 1 103 7 is_stmt 0 view .LVU65
 197 0024 FFF7FEFF 		bl	HAL_UART_Init
 198              	.LVL8:
 199              		.loc 1 103 6 view .LVU66
 200 0028 70B9     		cbnz	r0, .L19
 201              	.L14:
 104:Core/Src/usart.c ****   {
 105:Core/Src/usart.c ****     Error_Handler();
 106:Core/Src/usart.c ****   }
 107:Core/Src/usart.c ****   if (HAL_UARTEx_SetTxFifoThreshold(&huart5, UART_TXFIFO_THRESHOLD_1_8) != HAL_OK)
 202              		.loc 1 107 3 is_stmt 1 view .LVU67
 203              		.loc 1 107 7 is_stmt 0 view .LVU68
 204 002a 0021     		movs	r1, #0
 205 002c 0C48     		ldr	r0, .L23
 206 002e FFF7FEFF 		bl	HAL_UARTEx_SetTxFifoThreshold
 207              	.LVL9:
 208              		.loc 1 107 6 view .LVU69
 209 0032 60B9     		cbnz	r0, .L20
 210              	.L15:
 108:Core/Src/usart.c ****   {
 109:Core/Src/usart.c ****     Error_Handler();
 110:Core/Src/usart.c ****   }
 111:Core/Src/usart.c ****   if (HAL_UARTEx_SetRxFifoThreshold(&huart5, UART_RXFIFO_THRESHOLD_1_8) != HAL_OK)
 211              		.loc 1 111 3 is_stmt 1 view .LVU70
 212              		.loc 1 111 7 is_stmt 0 view .LVU71
 213 0034 0021     		movs	r1, #0
 214 0036 0A48     		ldr	r0, .L23
 215 0038 FFF7FEFF 		bl	HAL_UARTEx_SetRxFifoThreshold
 216              	.LVL10:
 217              		.loc 1 111 6 view .LVU72
 218 003c 50B9     		cbnz	r0, .L21
 219              	.L16:
 112:Core/Src/usart.c ****   {
 113:Core/Src/usart.c ****     Error_Handler();
 114:Core/Src/usart.c ****   }
 115:Core/Src/usart.c ****   if (HAL_UARTEx_DisableFifoMode(&huart5) != HAL_OK)
 220              		.loc 1 115 3 is_stmt 1 view .LVU73
 221              		.loc 1 115 7 is_stmt 0 view .LVU74
 222 003e 0848     		ldr	r0, .L23
 223 0040 FFF7FEFF 		bl	HAL_UARTEx_DisableFifoMode
 224              	.LVL11:
 225              		.loc 1 115 6 view .LVU75
 226 0044 48B9     		cbnz	r0, .L22
ARM GAS  C:\Users\blue\AppData\Local\Temp\ccjNjakL.s 			page 7


 227              	.L13:
 116:Core/Src/usart.c ****   {
 117:Core/Src/usart.c ****     Error_Handler();
 118:Core/Src/usart.c ****   }
 119:Core/Src/usart.c ****   /* USER CODE BEGIN UART5_Init 2 */
 120:Core/Src/usart.c **** 
 121:Core/Src/usart.c ****   /* USER CODE END UART5_Init 2 */
 122:Core/Src/usart.c **** 
 123:Core/Src/usart.c **** }
 228              		.loc 1 123 1 view .LVU76
 229 0046 08BD     		pop	{r3, pc}
 230              	.L19:
 105:Core/Src/usart.c ****   }
 231              		.loc 1 105 5 is_stmt 1 view .LVU77
 232 0048 FFF7FEFF 		bl	Error_Handler
 233              	.LVL12:
 234 004c EDE7     		b	.L14
 235              	.L20:
 109:Core/Src/usart.c ****   }
 236              		.loc 1 109 5 view .LVU78
 237 004e FFF7FEFF 		bl	Error_Handler
 238              	.LVL13:
 239 0052 EFE7     		b	.L15
 240              	.L21:
 113:Core/Src/usart.c ****   }
 241              		.loc 1 113 5 view .LVU79
 242 0054 FFF7FEFF 		bl	Error_Handler
 243              	.LVL14:
 244 0058 F1E7     		b	.L16
 245              	.L22:
 117:Core/Src/usart.c ****   }
 246              		.loc 1 117 5 view .LVU80
 247 005a FFF7FEFF 		bl	Error_Handler
 248              	.LVL15:
 249              		.loc 1 123 1 is_stmt 0 view .LVU81
 250 005e F2E7     		b	.L13
 251              	.L24:
 252              		.align	2
 253              	.L23:
 254 0060 00000000 		.word	.LANCHOR1
 255 0064 00500040 		.word	1073762304
 256              		.cfi_endproc
 257              	.LFE145:
 259              		.section	.text.MX_USART1_UART_Init,"ax",%progbits
 260              		.align	1
 261              		.global	MX_USART1_UART_Init
 262              		.syntax unified
 263              		.thumb
 264              		.thumb_func
 266              	MX_USART1_UART_Init:
 267              	.LFB146:
 124:Core/Src/usart.c **** /* USART1 init function */
 125:Core/Src/usart.c **** 
 126:Core/Src/usart.c **** void MX_USART1_UART_Init(void)
 127:Core/Src/usart.c **** {
 268              		.loc 1 127 1 is_stmt 1 view -0
 269              		.cfi_startproc
ARM GAS  C:\Users\blue\AppData\Local\Temp\ccjNjakL.s 			page 8


 270              		@ args = 0, pretend = 0, frame = 0
 271              		@ frame_needed = 0, uses_anonymous_args = 0
 272 0000 08B5     		push	{r3, lr}
 273              	.LCFI2:
 274              		.cfi_def_cfa_offset 8
 275              		.cfi_offset 3, -8
 276              		.cfi_offset 14, -4
 128:Core/Src/usart.c **** 
 129:Core/Src/usart.c ****   /* USER CODE BEGIN USART1_Init 0 */
 130:Core/Src/usart.c **** 
 131:Core/Src/usart.c ****   /* USER CODE END USART1_Init 0 */
 132:Core/Src/usart.c **** 
 133:Core/Src/usart.c ****   /* USER CODE BEGIN USART1_Init 1 */
 134:Core/Src/usart.c **** 
 135:Core/Src/usart.c ****   /* USER CODE END USART1_Init 1 */
 136:Core/Src/usart.c ****   huart1.Instance = USART1;
 277              		.loc 1 136 3 view .LVU83
 278              		.loc 1 136 19 is_stmt 0 view .LVU84
 279 0002 1748     		ldr	r0, .L35
 280 0004 174B     		ldr	r3, .L35+4
 281 0006 0360     		str	r3, [r0]
 137:Core/Src/usart.c ****   huart1.Init.BaudRate = 115200;
 282              		.loc 1 137 3 is_stmt 1 view .LVU85
 283              		.loc 1 137 24 is_stmt 0 view .LVU86
 284 0008 4FF4E133 		mov	r3, #115200
 285 000c 4360     		str	r3, [r0, #4]
 138:Core/Src/usart.c ****   huart1.Init.WordLength = UART_WORDLENGTH_8B;
 286              		.loc 1 138 3 is_stmt 1 view .LVU87
 287              		.loc 1 138 26 is_stmt 0 view .LVU88
 288 000e 0023     		movs	r3, #0
 289 0010 8360     		str	r3, [r0, #8]
 139:Core/Src/usart.c ****   huart1.Init.StopBits = UART_STOPBITS_1;
 290              		.loc 1 139 3 is_stmt 1 view .LVU89
 291              		.loc 1 139 24 is_stmt 0 view .LVU90
 292 0012 C360     		str	r3, [r0, #12]
 140:Core/Src/usart.c ****   huart1.Init.Parity = UART_PARITY_NONE;
 293              		.loc 1 140 3 is_stmt 1 view .LVU91
 294              		.loc 1 140 22 is_stmt 0 view .LVU92
 295 0014 0361     		str	r3, [r0, #16]
 141:Core/Src/usart.c ****   huart1.Init.Mode = UART_MODE_RX;
 296              		.loc 1 141 3 is_stmt 1 view .LVU93
 297              		.loc 1 141 20 is_stmt 0 view .LVU94
 298 0016 0422     		movs	r2, #4
 299 0018 4261     		str	r2, [r0, #20]
 142:Core/Src/usart.c ****   huart1.Init.HwFlowCtl = UART_HWCONTROL_NONE;
 300              		.loc 1 142 3 is_stmt 1 view .LVU95
 301              		.loc 1 142 25 is_stmt 0 view .LVU96
 302 001a 8361     		str	r3, [r0, #24]
 143:Core/Src/usart.c ****   huart1.Init.OverSampling = UART_OVERSAMPLING_16;
 303              		.loc 1 143 3 is_stmt 1 view .LVU97
 304              		.loc 1 143 28 is_stmt 0 view .LVU98
 305 001c C361     		str	r3, [r0, #28]
 144:Core/Src/usart.c ****   huart1.Init.OneBitSampling = UART_ONE_BIT_SAMPLE_DISABLE;
 306              		.loc 1 144 3 is_stmt 1 view .LVU99
 307              		.loc 1 144 30 is_stmt 0 view .LVU100
 308 001e 0362     		str	r3, [r0, #32]
 145:Core/Src/usart.c ****   huart1.Init.ClockPrescaler = UART_PRESCALER_DIV1;
ARM GAS  C:\Users\blue\AppData\Local\Temp\ccjNjakL.s 			page 9


 309              		.loc 1 145 3 is_stmt 1 view .LVU101
 310              		.loc 1 145 30 is_stmt 0 view .LVU102
 311 0020 4362     		str	r3, [r0, #36]
 146:Core/Src/usart.c ****   huart1.AdvancedInit.AdvFeatureInit = UART_ADVFEATURE_NO_INIT;
 312              		.loc 1 146 3 is_stmt 1 view .LVU103
 313              		.loc 1 146 38 is_stmt 0 view .LVU104
 314 0022 8362     		str	r3, [r0, #40]
 147:Core/Src/usart.c ****   if (HAL_UART_Init(&huart1) != HAL_OK)
 315              		.loc 1 147 3 is_stmt 1 view .LVU105
 316              		.loc 1 147 7 is_stmt 0 view .LVU106
 317 0024 FFF7FEFF 		bl	HAL_UART_Init
 318              	.LVL16:
 319              		.loc 1 147 6 view .LVU107
 320 0028 70B9     		cbnz	r0, .L31
 321              	.L26:
 148:Core/Src/usart.c ****   {
 149:Core/Src/usart.c ****     Error_Handler();
 150:Core/Src/usart.c ****   }
 151:Core/Src/usart.c ****   if (HAL_UARTEx_SetTxFifoThreshold(&huart1, UART_TXFIFO_THRESHOLD_1_8) != HAL_OK)
 322              		.loc 1 151 3 is_stmt 1 view .LVU108
 323              		.loc 1 151 7 is_stmt 0 view .LVU109
 324 002a 0021     		movs	r1, #0
 325 002c 0C48     		ldr	r0, .L35
 326 002e FFF7FEFF 		bl	HAL_UARTEx_SetTxFifoThreshold
 327              	.LVL17:
 328              		.loc 1 151 6 view .LVU110
 329 0032 60B9     		cbnz	r0, .L32
 330              	.L27:
 152:Core/Src/usart.c ****   {
 153:Core/Src/usart.c ****     Error_Handler();
 154:Core/Src/usart.c ****   }
 155:Core/Src/usart.c ****   if (HAL_UARTEx_SetRxFifoThreshold(&huart1, UART_RXFIFO_THRESHOLD_1_8) != HAL_OK)
 331              		.loc 1 155 3 is_stmt 1 view .LVU111
 332              		.loc 1 155 7 is_stmt 0 view .LVU112
 333 0034 0021     		movs	r1, #0
 334 0036 0A48     		ldr	r0, .L35
 335 0038 FFF7FEFF 		bl	HAL_UARTEx_SetRxFifoThreshold
 336              	.LVL18:
 337              		.loc 1 155 6 view .LVU113
 338 003c 50B9     		cbnz	r0, .L33
 339              	.L28:
 156:Core/Src/usart.c ****   {
 157:Core/Src/usart.c ****     Error_Handler();
 158:Core/Src/usart.c ****   }
 159:Core/Src/usart.c ****   if (HAL_UARTEx_DisableFifoMode(&huart1) != HAL_OK)
 340              		.loc 1 159 3 is_stmt 1 view .LVU114
 341              		.loc 1 159 7 is_stmt 0 view .LVU115
 342 003e 0848     		ldr	r0, .L35
 343 0040 FFF7FEFF 		bl	HAL_UARTEx_DisableFifoMode
 344              	.LVL19:
 345              		.loc 1 159 6 view .LVU116
 346 0044 48B9     		cbnz	r0, .L34
 347              	.L25:
 160:Core/Src/usart.c ****   {
 161:Core/Src/usart.c ****     Error_Handler();
 162:Core/Src/usart.c ****   }
 163:Core/Src/usart.c ****   /* USER CODE BEGIN USART1_Init 2 */
ARM GAS  C:\Users\blue\AppData\Local\Temp\ccjNjakL.s 			page 10


 164:Core/Src/usart.c **** 
 165:Core/Src/usart.c ****   /* USER CODE END USART1_Init 2 */
 166:Core/Src/usart.c **** 
 167:Core/Src/usart.c **** }
 348              		.loc 1 167 1 view .LVU117
 349 0046 08BD     		pop	{r3, pc}
 350              	.L31:
 149:Core/Src/usart.c ****   }
 351              		.loc 1 149 5 is_stmt 1 view .LVU118
 352 0048 FFF7FEFF 		bl	Error_Handler
 353              	.LVL20:
 354 004c EDE7     		b	.L26
 355              	.L32:
 153:Core/Src/usart.c ****   }
 356              		.loc 1 153 5 view .LVU119
 357 004e FFF7FEFF 		bl	Error_Handler
 358              	.LVL21:
 359 0052 EFE7     		b	.L27
 360              	.L33:
 157:Core/Src/usart.c ****   }
 361              		.loc 1 157 5 view .LVU120
 362 0054 FFF7FEFF 		bl	Error_Handler
 363              	.LVL22:
 364 0058 F1E7     		b	.L28
 365              	.L34:
 161:Core/Src/usart.c ****   }
 366              		.loc 1 161 5 view .LVU121
 367 005a FFF7FEFF 		bl	Error_Handler
 368              	.LVL23:
 369              		.loc 1 167 1 is_stmt 0 view .LVU122
 370 005e F2E7     		b	.L25
 371              	.L36:
 372              		.align	2
 373              	.L35:
 374 0060 00000000 		.word	.LANCHOR2
 375 0064 00100140 		.word	1073811456
 376              		.cfi_endproc
 377              	.LFE146:
 379              		.section	.text.MX_USART2_UART_Init,"ax",%progbits
 380              		.align	1
 381              		.global	MX_USART2_UART_Init
 382              		.syntax unified
 383              		.thumb
 384              		.thumb_func
 386              	MX_USART2_UART_Init:
 387              	.LFB147:
 168:Core/Src/usart.c **** /* USART2 init function */
 169:Core/Src/usart.c **** 
 170:Core/Src/usart.c **** void MX_USART2_UART_Init(void)
 171:Core/Src/usart.c **** {
 388              		.loc 1 171 1 is_stmt 1 view -0
 389              		.cfi_startproc
 390              		@ args = 0, pretend = 0, frame = 0
 391              		@ frame_needed = 0, uses_anonymous_args = 0
 392 0000 08B5     		push	{r3, lr}
 393              	.LCFI3:
 394              		.cfi_def_cfa_offset 8
ARM GAS  C:\Users\blue\AppData\Local\Temp\ccjNjakL.s 			page 11


 395              		.cfi_offset 3, -8
 396              		.cfi_offset 14, -4
 172:Core/Src/usart.c **** 
 173:Core/Src/usart.c ****   /* USER CODE BEGIN USART2_Init 0 */
 174:Core/Src/usart.c **** 
 175:Core/Src/usart.c ****   /* USER CODE END USART2_Init 0 */
 176:Core/Src/usart.c **** 
 177:Core/Src/usart.c ****   /* USER CODE BEGIN USART2_Init 1 */
 178:Core/Src/usart.c **** 
 179:Core/Src/usart.c ****   /* USER CODE END USART2_Init 1 */
 180:Core/Src/usart.c ****   huart2.Instance = USART2;
 397              		.loc 1 180 3 view .LVU124
 398              		.loc 1 180 19 is_stmt 0 view .LVU125
 399 0002 1848     		ldr	r0, .L47
 400 0004 184B     		ldr	r3, .L47+4
 401 0006 0360     		str	r3, [r0]
 181:Core/Src/usart.c ****   huart2.Init.BaudRate = 115200;
 402              		.loc 1 181 3 is_stmt 1 view .LVU126
 403              		.loc 1 181 24 is_stmt 0 view .LVU127
 404 0008 4FF4E133 		mov	r3, #115200
 405 000c 4360     		str	r3, [r0, #4]
 182:Core/Src/usart.c ****   huart2.Init.WordLength = UART_WORDLENGTH_8B;
 406              		.loc 1 182 3 is_stmt 1 view .LVU128
 407              		.loc 1 182 26 is_stmt 0 view .LVU129
 408 000e 0023     		movs	r3, #0
 409 0010 8360     		str	r3, [r0, #8]
 183:Core/Src/usart.c ****   huart2.Init.StopBits = UART_STOPBITS_1;
 410              		.loc 1 183 3 is_stmt 1 view .LVU130
 411              		.loc 1 183 24 is_stmt 0 view .LVU131
 412 0012 C360     		str	r3, [r0, #12]
 184:Core/Src/usart.c ****   huart2.Init.Parity = UART_PARITY_NONE;
 413              		.loc 1 184 3 is_stmt 1 view .LVU132
 414              		.loc 1 184 22 is_stmt 0 view .LVU133
 415 0014 0361     		str	r3, [r0, #16]
 185:Core/Src/usart.c ****   huart2.Init.Mode = UART_MODE_TX_RX;
 416              		.loc 1 185 3 is_stmt 1 view .LVU134
 417              		.loc 1 185 20 is_stmt 0 view .LVU135
 418 0016 0C22     		movs	r2, #12
 419 0018 4261     		str	r2, [r0, #20]
 186:Core/Src/usart.c ****   huart2.Init.HwFlowCtl = UART_HWCONTROL_NONE;
 420              		.loc 1 186 3 is_stmt 1 view .LVU136
 421              		.loc 1 186 25 is_stmt 0 view .LVU137
 422 001a 8361     		str	r3, [r0, #24]
 187:Core/Src/usart.c ****   huart2.Init.OverSampling = UART_OVERSAMPLING_16;
 423              		.loc 1 187 3 is_stmt 1 view .LVU138
 424              		.loc 1 187 28 is_stmt 0 view .LVU139
 425 001c C361     		str	r3, [r0, #28]
 188:Core/Src/usart.c ****   huart2.Init.OneBitSampling = UART_ONE_BIT_SAMPLE_ENABLE;
 426              		.loc 1 188 3 is_stmt 1 view .LVU140
 427              		.loc 1 188 30 is_stmt 0 view .LVU141
 428 001e 4FF40062 		mov	r2, #2048
 429 0022 0262     		str	r2, [r0, #32]
 189:Core/Src/usart.c ****   huart2.Init.ClockPrescaler = UART_PRESCALER_DIV1;
 430              		.loc 1 189 3 is_stmt 1 view .LVU142
 431              		.loc 1 189 30 is_stmt 0 view .LVU143
 432 0024 4362     		str	r3, [r0, #36]
 190:Core/Src/usart.c ****   huart2.AdvancedInit.AdvFeatureInit = UART_ADVFEATURE_NO_INIT;
ARM GAS  C:\Users\blue\AppData\Local\Temp\ccjNjakL.s 			page 12


 433              		.loc 1 190 3 is_stmt 1 view .LVU144
 434              		.loc 1 190 38 is_stmt 0 view .LVU145
 435 0026 8362     		str	r3, [r0, #40]
 191:Core/Src/usart.c ****   if (HAL_UART_Init(&huart2) != HAL_OK)
 436              		.loc 1 191 3 is_stmt 1 view .LVU146
 437              		.loc 1 191 7 is_stmt 0 view .LVU147
 438 0028 FFF7FEFF 		bl	HAL_UART_Init
 439              	.LVL24:
 440              		.loc 1 191 6 view .LVU148
 441 002c 70B9     		cbnz	r0, .L43
 442              	.L38:
 192:Core/Src/usart.c ****   {
 193:Core/Src/usart.c ****     Error_Handler();
 194:Core/Src/usart.c ****   }
 195:Core/Src/usart.c ****   if (HAL_UARTEx_SetTxFifoThreshold(&huart2, UART_TXFIFO_THRESHOLD_1_8) != HAL_OK)
 443              		.loc 1 195 3 is_stmt 1 view .LVU149
 444              		.loc 1 195 7 is_stmt 0 view .LVU150
 445 002e 0021     		movs	r1, #0
 446 0030 0C48     		ldr	r0, .L47
 447 0032 FFF7FEFF 		bl	HAL_UARTEx_SetTxFifoThreshold
 448              	.LVL25:
 449              		.loc 1 195 6 view .LVU151
 450 0036 60B9     		cbnz	r0, .L44
 451              	.L39:
 196:Core/Src/usart.c ****   {
 197:Core/Src/usart.c ****     Error_Handler();
 198:Core/Src/usart.c ****   }
 199:Core/Src/usart.c ****   if (HAL_UARTEx_SetRxFifoThreshold(&huart2, UART_RXFIFO_THRESHOLD_1_8) != HAL_OK)
 452              		.loc 1 199 3 is_stmt 1 view .LVU152
 453              		.loc 1 199 7 is_stmt 0 view .LVU153
 454 0038 0021     		movs	r1, #0
 455 003a 0A48     		ldr	r0, .L47
 456 003c FFF7FEFF 		bl	HAL_UARTEx_SetRxFifoThreshold
 457              	.LVL26:
 458              		.loc 1 199 6 view .LVU154
 459 0040 50B9     		cbnz	r0, .L45
 460              	.L40:
 200:Core/Src/usart.c ****   {
 201:Core/Src/usart.c ****     Error_Handler();
 202:Core/Src/usart.c ****   }
 203:Core/Src/usart.c ****   if (HAL_UARTEx_DisableFifoMode(&huart2) != HAL_OK)
 461              		.loc 1 203 3 is_stmt 1 view .LVU155
 462              		.loc 1 203 7 is_stmt 0 view .LVU156
 463 0042 0848     		ldr	r0, .L47
 464 0044 FFF7FEFF 		bl	HAL_UARTEx_DisableFifoMode
 465              	.LVL27:
 466              		.loc 1 203 6 view .LVU157
 467 0048 48B9     		cbnz	r0, .L46
 468              	.L37:
 204:Core/Src/usart.c ****   {
 205:Core/Src/usart.c ****     Error_Handler();
 206:Core/Src/usart.c ****   }
 207:Core/Src/usart.c ****   /* USER CODE BEGIN USART2_Init 2 */
 208:Core/Src/usart.c **** 
 209:Core/Src/usart.c ****   /* USER CODE END USART2_Init 2 */
 210:Core/Src/usart.c **** 
 211:Core/Src/usart.c **** }
ARM GAS  C:\Users\blue\AppData\Local\Temp\ccjNjakL.s 			page 13


 469              		.loc 1 211 1 view .LVU158
 470 004a 08BD     		pop	{r3, pc}
 471              	.L43:
 193:Core/Src/usart.c ****   }
 472              		.loc 1 193 5 is_stmt 1 view .LVU159
 473 004c FFF7FEFF 		bl	Error_Handler
 474              	.LVL28:
 475 0050 EDE7     		b	.L38
 476              	.L44:
 197:Core/Src/usart.c ****   }
 477              		.loc 1 197 5 view .LVU160
 478 0052 FFF7FEFF 		bl	Error_Handler
 479              	.LVL29:
 480 0056 EFE7     		b	.L39
 481              	.L45:
 201:Core/Src/usart.c ****   }
 482              		.loc 1 201 5 view .LVU161
 483 0058 FFF7FEFF 		bl	Error_Handler
 484              	.LVL30:
 485 005c F1E7     		b	.L40
 486              	.L46:
 205:Core/Src/usart.c ****   }
 487              		.loc 1 205 5 view .LVU162
 488 005e FFF7FEFF 		bl	Error_Handler
 489              	.LVL31:
 490              		.loc 1 211 1 is_stmt 0 view .LVU163
 491 0062 F2E7     		b	.L37
 492              	.L48:
 493              		.align	2
 494              	.L47:
 495 0064 00000000 		.word	.LANCHOR3
 496 0068 00440040 		.word	1073759232
 497              		.cfi_endproc
 498              	.LFE147:
 500              		.section	.text.MX_USART3_UART_Init,"ax",%progbits
 501              		.align	1
 502              		.global	MX_USART3_UART_Init
 503              		.syntax unified
 504              		.thumb
 505              		.thumb_func
 507              	MX_USART3_UART_Init:
 508              	.LFB148:
 212:Core/Src/usart.c **** /* USART3 init function */
 213:Core/Src/usart.c **** 
 214:Core/Src/usart.c **** void MX_USART3_UART_Init(void)
 215:Core/Src/usart.c **** {
 509              		.loc 1 215 1 is_stmt 1 view -0
 510              		.cfi_startproc
 511              		@ args = 0, pretend = 0, frame = 0
 512              		@ frame_needed = 0, uses_anonymous_args = 0
 513 0000 08B5     		push	{r3, lr}
 514              	.LCFI4:
 515              		.cfi_def_cfa_offset 8
 516              		.cfi_offset 3, -8
 517              		.cfi_offset 14, -4
 216:Core/Src/usart.c **** 
 217:Core/Src/usart.c ****   /* USER CODE BEGIN USART3_Init 0 */
ARM GAS  C:\Users\blue\AppData\Local\Temp\ccjNjakL.s 			page 14


 218:Core/Src/usart.c **** 
 219:Core/Src/usart.c ****   /* USER CODE END USART3_Init 0 */
 220:Core/Src/usart.c **** 
 221:Core/Src/usart.c ****   /* USER CODE BEGIN USART3_Init 1 */
 222:Core/Src/usart.c **** 
 223:Core/Src/usart.c ****   /* USER CODE END USART3_Init 1 */
 224:Core/Src/usart.c ****   huart3.Instance = USART3;
 518              		.loc 1 224 3 view .LVU165
 519              		.loc 1 224 19 is_stmt 0 view .LVU166
 520 0002 1748     		ldr	r0, .L59
 521 0004 174B     		ldr	r3, .L59+4
 522 0006 0360     		str	r3, [r0]
 225:Core/Src/usart.c ****   huart3.Init.BaudRate = 115200;
 523              		.loc 1 225 3 is_stmt 1 view .LVU167
 524              		.loc 1 225 24 is_stmt 0 view .LVU168
 525 0008 4FF4E133 		mov	r3, #115200
 526 000c 4360     		str	r3, [r0, #4]
 226:Core/Src/usart.c ****   huart3.Init.WordLength = UART_WORDLENGTH_8B;
 527              		.loc 1 226 3 is_stmt 1 view .LVU169
 528              		.loc 1 226 26 is_stmt 0 view .LVU170
 529 000e 0023     		movs	r3, #0
 530 0010 8360     		str	r3, [r0, #8]
 227:Core/Src/usart.c ****   huart3.Init.StopBits = UART_STOPBITS_1;
 531              		.loc 1 227 3 is_stmt 1 view .LVU171
 532              		.loc 1 227 24 is_stmt 0 view .LVU172
 533 0012 C360     		str	r3, [r0, #12]
 228:Core/Src/usart.c ****   huart3.Init.Parity = UART_PARITY_NONE;
 534              		.loc 1 228 3 is_stmt 1 view .LVU173
 535              		.loc 1 228 22 is_stmt 0 view .LVU174
 536 0014 0361     		str	r3, [r0, #16]
 229:Core/Src/usart.c ****   huart3.Init.Mode = UART_MODE_RX;
 537              		.loc 1 229 3 is_stmt 1 view .LVU175
 538              		.loc 1 229 20 is_stmt 0 view .LVU176
 539 0016 0422     		movs	r2, #4
 540 0018 4261     		str	r2, [r0, #20]
 230:Core/Src/usart.c ****   huart3.Init.HwFlowCtl = UART_HWCONTROL_NONE;
 541              		.loc 1 230 3 is_stmt 1 view .LVU177
 542              		.loc 1 230 25 is_stmt 0 view .LVU178
 543 001a 8361     		str	r3, [r0, #24]
 231:Core/Src/usart.c ****   huart3.Init.OverSampling = UART_OVERSAMPLING_16;
 544              		.loc 1 231 3 is_stmt 1 view .LVU179
 545              		.loc 1 231 28 is_stmt 0 view .LVU180
 546 001c C361     		str	r3, [r0, #28]
 232:Core/Src/usart.c ****   huart3.Init.OneBitSampling = UART_ONE_BIT_SAMPLE_DISABLE;
 547              		.loc 1 232 3 is_stmt 1 view .LVU181
 548              		.loc 1 232 30 is_stmt 0 view .LVU182
 549 001e 0362     		str	r3, [r0, #32]
 233:Core/Src/usart.c ****   huart3.Init.ClockPrescaler = UART_PRESCALER_DIV1;
 550              		.loc 1 233 3 is_stmt 1 view .LVU183
 551              		.loc 1 233 30 is_stmt 0 view .LVU184
 552 0020 4362     		str	r3, [r0, #36]
 234:Core/Src/usart.c ****   huart3.AdvancedInit.AdvFeatureInit = UART_ADVFEATURE_NO_INIT;
 553              		.loc 1 234 3 is_stmt 1 view .LVU185
 554              		.loc 1 234 38 is_stmt 0 view .LVU186
 555 0022 8362     		str	r3, [r0, #40]
 235:Core/Src/usart.c ****   if (HAL_UART_Init(&huart3) != HAL_OK)
 556              		.loc 1 235 3 is_stmt 1 view .LVU187
ARM GAS  C:\Users\blue\AppData\Local\Temp\ccjNjakL.s 			page 15


 557              		.loc 1 235 7 is_stmt 0 view .LVU188
 558 0024 FFF7FEFF 		bl	HAL_UART_Init
 559              	.LVL32:
 560              		.loc 1 235 6 view .LVU189
 561 0028 70B9     		cbnz	r0, .L55
 562              	.L50:
 236:Core/Src/usart.c ****   {
 237:Core/Src/usart.c ****     Error_Handler();
 238:Core/Src/usart.c ****   }
 239:Core/Src/usart.c ****   if (HAL_UARTEx_SetTxFifoThreshold(&huart3, UART_TXFIFO_THRESHOLD_1_8) != HAL_OK)
 563              		.loc 1 239 3 is_stmt 1 view .LVU190
 564              		.loc 1 239 7 is_stmt 0 view .LVU191
 565 002a 0021     		movs	r1, #0
 566 002c 0C48     		ldr	r0, .L59
 567 002e FFF7FEFF 		bl	HAL_UARTEx_SetTxFifoThreshold
 568              	.LVL33:
 569              		.loc 1 239 6 view .LVU192
 570 0032 60B9     		cbnz	r0, .L56
 571              	.L51:
 240:Core/Src/usart.c ****   {
 241:Core/Src/usart.c ****     Error_Handler();
 242:Core/Src/usart.c ****   }
 243:Core/Src/usart.c ****   if (HAL_UARTEx_SetRxFifoThreshold(&huart3, UART_RXFIFO_THRESHOLD_1_8) != HAL_OK)
 572              		.loc 1 243 3 is_stmt 1 view .LVU193
 573              		.loc 1 243 7 is_stmt 0 view .LVU194
 574 0034 0021     		movs	r1, #0
 575 0036 0A48     		ldr	r0, .L59
 576 0038 FFF7FEFF 		bl	HAL_UARTEx_SetRxFifoThreshold
 577              	.LVL34:
 578              		.loc 1 243 6 view .LVU195
 579 003c 50B9     		cbnz	r0, .L57
 580              	.L52:
 244:Core/Src/usart.c ****   {
 245:Core/Src/usart.c ****     Error_Handler();
 246:Core/Src/usart.c ****   }
 247:Core/Src/usart.c ****   if (HAL_UARTEx_DisableFifoMode(&huart3) != HAL_OK)
 581              		.loc 1 247 3 is_stmt 1 view .LVU196
 582              		.loc 1 247 7 is_stmt 0 view .LVU197
 583 003e 0848     		ldr	r0, .L59
 584 0040 FFF7FEFF 		bl	HAL_UARTEx_DisableFifoMode
 585              	.LVL35:
 586              		.loc 1 247 6 view .LVU198
 587 0044 48B9     		cbnz	r0, .L58
 588              	.L49:
 248:Core/Src/usart.c ****   {
 249:Core/Src/usart.c ****     Error_Handler();
 250:Core/Src/usart.c ****   }
 251:Core/Src/usart.c ****   /* USER CODE BEGIN USART3_Init 2 */
 252:Core/Src/usart.c **** 
 253:Core/Src/usart.c ****   /* USER CODE END USART3_Init 2 */
 254:Core/Src/usart.c **** 
 255:Core/Src/usart.c **** }
 589              		.loc 1 255 1 view .LVU199
 590 0046 08BD     		pop	{r3, pc}
 591              	.L55:
 237:Core/Src/usart.c ****   }
 592              		.loc 1 237 5 is_stmt 1 view .LVU200
ARM GAS  C:\Users\blue\AppData\Local\Temp\ccjNjakL.s 			page 16


 593 0048 FFF7FEFF 		bl	Error_Handler
 594              	.LVL36:
 595 004c EDE7     		b	.L50
 596              	.L56:
 241:Core/Src/usart.c ****   }
 597              		.loc 1 241 5 view .LVU201
 598 004e FFF7FEFF 		bl	Error_Handler
 599              	.LVL37:
 600 0052 EFE7     		b	.L51
 601              	.L57:
 245:Core/Src/usart.c ****   }
 602              		.loc 1 245 5 view .LVU202
 603 0054 FFF7FEFF 		bl	Error_Handler
 604              	.LVL38:
 605 0058 F1E7     		b	.L52
 606              	.L58:
 249:Core/Src/usart.c ****   }
 607              		.loc 1 249 5 view .LVU203
 608 005a FFF7FEFF 		bl	Error_Handler
 609              	.LVL39:
 610              		.loc 1 255 1 is_stmt 0 view .LVU204
 611 005e F2E7     		b	.L49
 612              	.L60:
 613              		.align	2
 614              	.L59:
 615 0060 00000000 		.word	.LANCHOR4
 616 0064 00480040 		.word	1073760256
 617              		.cfi_endproc
 618              	.LFE148:
 620              		.section	.text.HAL_UART_MspInit,"ax",%progbits
 621              		.align	1
 622              		.global	HAL_UART_MspInit
 623              		.syntax unified
 624              		.thumb
 625              		.thumb_func
 627              	HAL_UART_MspInit:
 628              	.LVL40:
 629              	.LFB149:
 256:Core/Src/usart.c **** 
 257:Core/Src/usart.c **** void HAL_UART_MspInit(UART_HandleTypeDef* uartHandle)
 258:Core/Src/usart.c **** {
 630              		.loc 1 258 1 is_stmt 1 view -0
 631              		.cfi_startproc
 632              		@ args = 0, pretend = 0, frame = 264
 633              		@ frame_needed = 0, uses_anonymous_args = 0
 634              		.loc 1 258 1 is_stmt 0 view .LVU206
 635 0000 F0B5     		push	{r4, r5, r6, r7, lr}
 636              	.LCFI5:
 637              		.cfi_def_cfa_offset 20
 638              		.cfi_offset 4, -20
 639              		.cfi_offset 5, -16
 640              		.cfi_offset 6, -12
 641              		.cfi_offset 7, -8
 642              		.cfi_offset 14, -4
 643 0002 C3B0     		sub	sp, sp, #268
 644              	.LCFI6:
 645              		.cfi_def_cfa_offset 288
ARM GAS  C:\Users\blue\AppData\Local\Temp\ccjNjakL.s 			page 17


 646 0004 0446     		mov	r4, r0
 259:Core/Src/usart.c **** 
 260:Core/Src/usart.c ****   GPIO_InitTypeDef GPIO_InitStruct = {0};
 647              		.loc 1 260 3 is_stmt 1 view .LVU207
 648              		.loc 1 260 20 is_stmt 0 view .LVU208
 649 0006 0021     		movs	r1, #0
 650 0008 3D91     		str	r1, [sp, #244]
 651 000a 3E91     		str	r1, [sp, #248]
 652 000c 3F91     		str	r1, [sp, #252]
 653 000e 4091     		str	r1, [sp, #256]
 654 0010 4191     		str	r1, [sp, #260]
 261:Core/Src/usart.c ****   RCC_PeriphCLKInitTypeDef PeriphClkInitStruct = {0};
 655              		.loc 1 261 3 is_stmt 1 view .LVU209
 656              		.loc 1 261 28 is_stmt 0 view .LVU210
 657 0012 C022     		movs	r2, #192
 658 0014 0CA8     		add	r0, sp, #48
 659              	.LVL41:
 660              		.loc 1 261 28 view .LVU211
 661 0016 FFF7FEFF 		bl	memset
 662              	.LVL42:
 262:Core/Src/usart.c ****   if(uartHandle->Instance==UART4)
 663              		.loc 1 262 3 is_stmt 1 view .LVU212
 664              		.loc 1 262 16 is_stmt 0 view .LVU213
 665 001a 2368     		ldr	r3, [r4]
 666              		.loc 1 262 5 view .LVU214
 667 001c 974A     		ldr	r2, .L93
 668 001e 9342     		cmp	r3, r2
 669 0020 10D0     		beq	.L78
 263:Core/Src/usart.c ****   {
 264:Core/Src/usart.c ****   /* USER CODE BEGIN UART4_MspInit 0 */
 265:Core/Src/usart.c **** 
 266:Core/Src/usart.c ****   /* USER CODE END UART4_MspInit 0 */
 267:Core/Src/usart.c **** 
 268:Core/Src/usart.c ****   /** Initializes the peripherals clock
 269:Core/Src/usart.c ****   */
 270:Core/Src/usart.c ****     PeriphClkInitStruct.PeriphClockSelection = RCC_PERIPHCLK_UART4;
 271:Core/Src/usart.c ****     PeriphClkInitStruct.Usart234578ClockSelection = RCC_USART234578CLKSOURCE_D2PCLK1;
 272:Core/Src/usart.c ****     if (HAL_RCCEx_PeriphCLKConfig(&PeriphClkInitStruct) != HAL_OK)
 273:Core/Src/usart.c ****     {
 274:Core/Src/usart.c ****       Error_Handler();
 275:Core/Src/usart.c ****     }
 276:Core/Src/usart.c **** 
 277:Core/Src/usart.c ****     /* UART4 clock enable */
 278:Core/Src/usart.c ****     __HAL_RCC_UART4_CLK_ENABLE();
 279:Core/Src/usart.c **** 
 280:Core/Src/usart.c ****     __HAL_RCC_GPIOC_CLK_ENABLE();
 281:Core/Src/usart.c ****     /**UART4 GPIO Configuration
 282:Core/Src/usart.c ****     PC10     ------> UART4_TX
 283:Core/Src/usart.c ****     PC11     ------> UART4_RX
 284:Core/Src/usart.c ****     */
 285:Core/Src/usart.c ****     GPIO_InitStruct.Pin = RLD_UART4_TX_Pin|RLD_UART4_RX_Pin;
 286:Core/Src/usart.c ****     GPIO_InitStruct.Mode = GPIO_MODE_AF_PP;
 287:Core/Src/usart.c ****     GPIO_InitStruct.Pull = GPIO_NOPULL;
 288:Core/Src/usart.c ****     GPIO_InitStruct.Speed = GPIO_SPEED_FREQ_LOW;
 289:Core/Src/usart.c ****     GPIO_InitStruct.Alternate = GPIO_AF8_UART4;
 290:Core/Src/usart.c ****     HAL_GPIO_Init(GPIOC, &GPIO_InitStruct);
 291:Core/Src/usart.c **** 
ARM GAS  C:\Users\blue\AppData\Local\Temp\ccjNjakL.s 			page 18


 292:Core/Src/usart.c ****     /* UART4 DMA Init */
 293:Core/Src/usart.c ****     /* UART4_RX Init */
 294:Core/Src/usart.c ****     hdma_uart4_rx.Instance = DMA1_Stream3;
 295:Core/Src/usart.c ****     hdma_uart4_rx.Init.Request = DMA_REQUEST_UART4_RX;
 296:Core/Src/usart.c ****     hdma_uart4_rx.Init.Direction = DMA_PERIPH_TO_MEMORY;
 297:Core/Src/usart.c ****     hdma_uart4_rx.Init.PeriphInc = DMA_PINC_DISABLE;
 298:Core/Src/usart.c ****     hdma_uart4_rx.Init.MemInc = DMA_MINC_ENABLE;
 299:Core/Src/usart.c ****     hdma_uart4_rx.Init.PeriphDataAlignment = DMA_PDATAALIGN_BYTE;
 300:Core/Src/usart.c ****     hdma_uart4_rx.Init.MemDataAlignment = DMA_MDATAALIGN_BYTE;
 301:Core/Src/usart.c ****     hdma_uart4_rx.Init.Mode = DMA_NORMAL;
 302:Core/Src/usart.c ****     hdma_uart4_rx.Init.Priority = DMA_PRIORITY_MEDIUM;
 303:Core/Src/usart.c ****     hdma_uart4_rx.Init.FIFOMode = DMA_FIFOMODE_DISABLE;
 304:Core/Src/usart.c ****     if (HAL_DMA_Init(&hdma_uart4_rx) != HAL_OK)
 305:Core/Src/usart.c ****     {
 306:Core/Src/usart.c ****       Error_Handler();
 307:Core/Src/usart.c ****     }
 308:Core/Src/usart.c **** 
 309:Core/Src/usart.c ****     __HAL_LINKDMA(uartHandle,hdmarx,hdma_uart4_rx);
 310:Core/Src/usart.c **** 
 311:Core/Src/usart.c ****     /* UART4 interrupt Init */
 312:Core/Src/usart.c ****     HAL_NVIC_SetPriority(UART4_IRQn, 1, 0);
 313:Core/Src/usart.c ****     HAL_NVIC_EnableIRQ(UART4_IRQn);
 314:Core/Src/usart.c ****   /* USER CODE BEGIN UART4_MspInit 1 */
 315:Core/Src/usart.c **** 
 316:Core/Src/usart.c ****   /* USER CODE END UART4_MspInit 1 */
 317:Core/Src/usart.c ****   }
 318:Core/Src/usart.c ****   else if(uartHandle->Instance==UART5)
 670              		.loc 1 318 8 is_stmt 1 view .LVU215
 671              		.loc 1 318 10 is_stmt 0 view .LVU216
 672 0022 974A     		ldr	r2, .L93+4
 673 0024 9342     		cmp	r3, r2
 674 0026 64D0     		beq	.L79
 319:Core/Src/usart.c ****   {
 320:Core/Src/usart.c ****   /* USER CODE BEGIN UART5_MspInit 0 */
 321:Core/Src/usart.c **** 
 322:Core/Src/usart.c ****   /* USER CODE END UART5_MspInit 0 */
 323:Core/Src/usart.c **** 
 324:Core/Src/usart.c ****   /** Initializes the peripherals clock
 325:Core/Src/usart.c ****   */
 326:Core/Src/usart.c ****     PeriphClkInitStruct.PeriphClockSelection = RCC_PERIPHCLK_UART5;
 327:Core/Src/usart.c ****     PeriphClkInitStruct.Usart234578ClockSelection = RCC_USART234578CLKSOURCE_D2PCLK1;
 328:Core/Src/usart.c ****     if (HAL_RCCEx_PeriphCLKConfig(&PeriphClkInitStruct) != HAL_OK)
 329:Core/Src/usart.c ****     {
 330:Core/Src/usart.c ****       Error_Handler();
 331:Core/Src/usart.c ****     }
 332:Core/Src/usart.c **** 
 333:Core/Src/usart.c ****     /* UART5 clock enable */
 334:Core/Src/usart.c ****     __HAL_RCC_UART5_CLK_ENABLE();
 335:Core/Src/usart.c **** 
 336:Core/Src/usart.c ****     __HAL_RCC_GPIOC_CLK_ENABLE();
 337:Core/Src/usart.c ****     __HAL_RCC_GPIOD_CLK_ENABLE();
 338:Core/Src/usart.c ****     /**UART5 GPIO Configuration
 339:Core/Src/usart.c ****     PC12     ------> UART5_TX
 340:Core/Src/usart.c ****     PD2     ------> UART5_RX
 341:Core/Src/usart.c ****     */
 342:Core/Src/usart.c ****     GPIO_InitStruct.Pin = GYRO_UART5_TX_Pin;
 343:Core/Src/usart.c ****     GPIO_InitStruct.Mode = GPIO_MODE_AF_PP;
ARM GAS  C:\Users\blue\AppData\Local\Temp\ccjNjakL.s 			page 19


 344:Core/Src/usart.c ****     GPIO_InitStruct.Pull = GPIO_NOPULL;
 345:Core/Src/usart.c ****     GPIO_InitStruct.Speed = GPIO_SPEED_FREQ_LOW;
 346:Core/Src/usart.c ****     GPIO_InitStruct.Alternate = GPIO_AF8_UART5;
 347:Core/Src/usart.c ****     HAL_GPIO_Init(GYRO_UART5_TX_GPIO_Port, &GPIO_InitStruct);
 348:Core/Src/usart.c **** 
 349:Core/Src/usart.c ****     GPIO_InitStruct.Pin = GYRO_UART5_RX_Pin;
 350:Core/Src/usart.c ****     GPIO_InitStruct.Mode = GPIO_MODE_AF_PP;
 351:Core/Src/usart.c ****     GPIO_InitStruct.Pull = GPIO_NOPULL;
 352:Core/Src/usart.c ****     GPIO_InitStruct.Speed = GPIO_SPEED_FREQ_LOW;
 353:Core/Src/usart.c ****     GPIO_InitStruct.Alternate = GPIO_AF8_UART5;
 354:Core/Src/usart.c ****     HAL_GPIO_Init(GYRO_UART5_RX_GPIO_Port, &GPIO_InitStruct);
 355:Core/Src/usart.c **** 
 356:Core/Src/usart.c ****     /* UART5 DMA Init */
 357:Core/Src/usart.c ****     /* UART5_RX Init */
 358:Core/Src/usart.c ****     hdma_uart5_rx.Instance = DMA1_Stream4;
 359:Core/Src/usart.c ****     hdma_uart5_rx.Init.Request = DMA_REQUEST_UART5_RX;
 360:Core/Src/usart.c ****     hdma_uart5_rx.Init.Direction = DMA_PERIPH_TO_MEMORY;
 361:Core/Src/usart.c ****     hdma_uart5_rx.Init.PeriphInc = DMA_PINC_DISABLE;
 362:Core/Src/usart.c ****     hdma_uart5_rx.Init.MemInc = DMA_MINC_ENABLE;
 363:Core/Src/usart.c ****     hdma_uart5_rx.Init.PeriphDataAlignment = DMA_PDATAALIGN_BYTE;
 364:Core/Src/usart.c ****     hdma_uart5_rx.Init.MemDataAlignment = DMA_MDATAALIGN_BYTE;
 365:Core/Src/usart.c ****     hdma_uart5_rx.Init.Mode = DMA_NORMAL;
 366:Core/Src/usart.c ****     hdma_uart5_rx.Init.Priority = DMA_PRIORITY_HIGH;
 367:Core/Src/usart.c ****     hdma_uart5_rx.Init.FIFOMode = DMA_FIFOMODE_DISABLE;
 368:Core/Src/usart.c ****     if (HAL_DMA_Init(&hdma_uart5_rx) != HAL_OK)
 369:Core/Src/usart.c ****     {
 370:Core/Src/usart.c ****       Error_Handler();
 371:Core/Src/usart.c ****     }
 372:Core/Src/usart.c **** 
 373:Core/Src/usart.c ****     __HAL_LINKDMA(uartHandle,hdmarx,hdma_uart5_rx);
 374:Core/Src/usart.c **** 
 375:Core/Src/usart.c ****     /* UART5 interrupt Init */
 376:Core/Src/usart.c ****     HAL_NVIC_SetPriority(UART5_IRQn, 1, 0);
 377:Core/Src/usart.c ****     HAL_NVIC_EnableIRQ(UART5_IRQn);
 378:Core/Src/usart.c ****   /* USER CODE BEGIN UART5_MspInit 1 */
 379:Core/Src/usart.c **** 
 380:Core/Src/usart.c ****   /* USER CODE END UART5_MspInit 1 */
 381:Core/Src/usart.c ****   }
 382:Core/Src/usart.c ****   else if(uartHandle->Instance==USART1)
 675              		.loc 1 382 8 is_stmt 1 view .LVU217
 676              		.loc 1 382 10 is_stmt 0 view .LVU218
 677 0028 964A     		ldr	r2, .L93+8
 678 002a 9342     		cmp	r3, r2
 679 002c 00F0CE80 		beq	.L80
 383:Core/Src/usart.c ****   {
 384:Core/Src/usart.c ****   /* USER CODE BEGIN USART1_MspInit 0 */
 385:Core/Src/usart.c **** 
 386:Core/Src/usart.c ****   /* USER CODE END USART1_MspInit 0 */
 387:Core/Src/usart.c **** 
 388:Core/Src/usart.c ****   /** Initializes the peripherals clock
 389:Core/Src/usart.c ****   */
 390:Core/Src/usart.c ****     PeriphClkInitStruct.PeriphClockSelection = RCC_PERIPHCLK_USART1;
 391:Core/Src/usart.c ****     PeriphClkInitStruct.Usart16ClockSelection = RCC_USART16CLKSOURCE_D2PCLK2;
 392:Core/Src/usart.c ****     if (HAL_RCCEx_PeriphCLKConfig(&PeriphClkInitStruct) != HAL_OK)
 393:Core/Src/usart.c ****     {
 394:Core/Src/usart.c ****       Error_Handler();
 395:Core/Src/usart.c ****     }
ARM GAS  C:\Users\blue\AppData\Local\Temp\ccjNjakL.s 			page 20


 396:Core/Src/usart.c **** 
 397:Core/Src/usart.c ****     /* USART1 clock enable */
 398:Core/Src/usart.c ****     __HAL_RCC_USART1_CLK_ENABLE();
 399:Core/Src/usart.c **** 
 400:Core/Src/usart.c ****     __HAL_RCC_GPIOA_CLK_ENABLE();
 401:Core/Src/usart.c ****     /**USART1 GPIO Configuration
 402:Core/Src/usart.c ****     PA10     ------> USART1_RX
 403:Core/Src/usart.c ****     PA9     ------> USART1_TX
 404:Core/Src/usart.c ****     */
 405:Core/Src/usart.c ****     GPIO_InitStruct.Pin = BTH_USART1_RX_Pin|BTH_USART1_TX_Pin;
 406:Core/Src/usart.c ****     GPIO_InitStruct.Mode = GPIO_MODE_AF_PP;
 407:Core/Src/usart.c ****     GPIO_InitStruct.Pull = GPIO_NOPULL;
 408:Core/Src/usart.c ****     GPIO_InitStruct.Speed = GPIO_SPEED_FREQ_LOW;
 409:Core/Src/usart.c ****     GPIO_InitStruct.Alternate = GPIO_AF7_USART1;
 410:Core/Src/usart.c ****     HAL_GPIO_Init(GPIOA, &GPIO_InitStruct);
 411:Core/Src/usart.c **** 
 412:Core/Src/usart.c ****     /* USART1 DMA Init */
 413:Core/Src/usart.c ****     /* USART1_RX Init */
 414:Core/Src/usart.c ****     hdma_usart1_rx.Instance = DMA1_Stream0;
 415:Core/Src/usart.c ****     hdma_usart1_rx.Init.Request = DMA_REQUEST_USART1_RX;
 416:Core/Src/usart.c ****     hdma_usart1_rx.Init.Direction = DMA_PERIPH_TO_MEMORY;
 417:Core/Src/usart.c ****     hdma_usart1_rx.Init.PeriphInc = DMA_PINC_DISABLE;
 418:Core/Src/usart.c ****     hdma_usart1_rx.Init.MemInc = DMA_MINC_ENABLE;
 419:Core/Src/usart.c ****     hdma_usart1_rx.Init.PeriphDataAlignment = DMA_PDATAALIGN_BYTE;
 420:Core/Src/usart.c ****     hdma_usart1_rx.Init.MemDataAlignment = DMA_MDATAALIGN_BYTE;
 421:Core/Src/usart.c ****     hdma_usart1_rx.Init.Mode = DMA_NORMAL;
 422:Core/Src/usart.c ****     hdma_usart1_rx.Init.Priority = DMA_PRIORITY_VERY_HIGH;
 423:Core/Src/usart.c ****     hdma_usart1_rx.Init.FIFOMode = DMA_FIFOMODE_DISABLE;
 424:Core/Src/usart.c ****     if (HAL_DMA_Init(&hdma_usart1_rx) != HAL_OK)
 425:Core/Src/usart.c ****     {
 426:Core/Src/usart.c ****       Error_Handler();
 427:Core/Src/usart.c ****     }
 428:Core/Src/usart.c **** 
 429:Core/Src/usart.c ****     __HAL_LINKDMA(uartHandle,hdmarx,hdma_usart1_rx);
 430:Core/Src/usart.c **** 
 431:Core/Src/usart.c ****     /* USART1 interrupt Init */
 432:Core/Src/usart.c ****     HAL_NVIC_SetPriority(USART1_IRQn, 1, 0);
 433:Core/Src/usart.c ****     HAL_NVIC_EnableIRQ(USART1_IRQn);
 434:Core/Src/usart.c ****   /* USER CODE BEGIN USART1_MspInit 1 */
 435:Core/Src/usart.c **** 
 436:Core/Src/usart.c ****   /* USER CODE END USART1_MspInit 1 */
 437:Core/Src/usart.c ****   }
 438:Core/Src/usart.c ****   else if(uartHandle->Instance==USART2)
 680              		.loc 1 438 8 is_stmt 1 view .LVU219
 681              		.loc 1 438 10 is_stmt 0 view .LVU220
 682 0030 954A     		ldr	r2, .L93+12
 683 0032 9342     		cmp	r3, r2
 684 0034 00F04081 		beq	.L81
 439:Core/Src/usart.c ****   {
 440:Core/Src/usart.c ****   /* USER CODE BEGIN USART2_MspInit 0 */
 441:Core/Src/usart.c **** 
 442:Core/Src/usart.c ****   /* USER CODE END USART2_MspInit 0 */
 443:Core/Src/usart.c **** 
 444:Core/Src/usart.c ****   /** Initializes the peripherals clock
 445:Core/Src/usart.c ****   */
 446:Core/Src/usart.c ****     PeriphClkInitStruct.PeriphClockSelection = RCC_PERIPHCLK_USART2;
 447:Core/Src/usart.c ****     PeriphClkInitStruct.Usart234578ClockSelection = RCC_USART234578CLKSOURCE_D2PCLK1;
ARM GAS  C:\Users\blue\AppData\Local\Temp\ccjNjakL.s 			page 21


 448:Core/Src/usart.c ****     if (HAL_RCCEx_PeriphCLKConfig(&PeriphClkInitStruct) != HAL_OK)
 449:Core/Src/usart.c ****     {
 450:Core/Src/usart.c ****       Error_Handler();
 451:Core/Src/usart.c ****     }
 452:Core/Src/usart.c **** 
 453:Core/Src/usart.c ****     /* USART2 clock enable */
 454:Core/Src/usart.c ****     __HAL_RCC_USART2_CLK_ENABLE();
 455:Core/Src/usart.c **** 
 456:Core/Src/usart.c ****     __HAL_RCC_GPIOA_CLK_ENABLE();
 457:Core/Src/usart.c ****     /**USART2 GPIO Configuration
 458:Core/Src/usart.c ****     PA2     ------> USART2_TX
 459:Core/Src/usart.c ****     PA3     ------> USART2_RX
 460:Core/Src/usart.c ****     */
 461:Core/Src/usart.c ****     GPIO_InitStruct.Pin = LLD_USART2_TX_Pin|LLD_USART2_RX_Pin;
 462:Core/Src/usart.c ****     GPIO_InitStruct.Mode = GPIO_MODE_AF_PP;
 463:Core/Src/usart.c ****     GPIO_InitStruct.Pull = GPIO_PULLUP;
 464:Core/Src/usart.c ****     GPIO_InitStruct.Speed = GPIO_SPEED_FREQ_HIGH;
 465:Core/Src/usart.c ****     GPIO_InitStruct.Alternate = GPIO_AF7_USART2;
 466:Core/Src/usart.c ****     HAL_GPIO_Init(GPIOA, &GPIO_InitStruct);
 467:Core/Src/usart.c **** 
 468:Core/Src/usart.c ****     /* USART2 DMA Init */
 469:Core/Src/usart.c ****     /* USART2_RX Init */
 470:Core/Src/usart.c ****     hdma_usart2_rx.Instance = DMA1_Stream1;
 471:Core/Src/usart.c ****     hdma_usart2_rx.Init.Request = DMA_REQUEST_USART2_RX;
 472:Core/Src/usart.c ****     hdma_usart2_rx.Init.Direction = DMA_PERIPH_TO_MEMORY;
 473:Core/Src/usart.c ****     hdma_usart2_rx.Init.PeriphInc = DMA_PINC_DISABLE;
 474:Core/Src/usart.c ****     hdma_usart2_rx.Init.MemInc = DMA_MINC_ENABLE;
 475:Core/Src/usart.c ****     hdma_usart2_rx.Init.PeriphDataAlignment = DMA_PDATAALIGN_BYTE;
 476:Core/Src/usart.c ****     hdma_usart2_rx.Init.MemDataAlignment = DMA_MDATAALIGN_BYTE;
 477:Core/Src/usart.c ****     hdma_usart2_rx.Init.Mode = DMA_NORMAL;
 478:Core/Src/usart.c ****     hdma_usart2_rx.Init.Priority = DMA_PRIORITY_MEDIUM;
 479:Core/Src/usart.c ****     hdma_usart2_rx.Init.FIFOMode = DMA_FIFOMODE_DISABLE;
 480:Core/Src/usart.c ****     if (HAL_DMA_Init(&hdma_usart2_rx) != HAL_OK)
 481:Core/Src/usart.c ****     {
 482:Core/Src/usart.c ****       Error_Handler();
 483:Core/Src/usart.c ****     }
 484:Core/Src/usart.c **** 
 485:Core/Src/usart.c ****     __HAL_LINKDMA(uartHandle,hdmarx,hdma_usart2_rx);
 486:Core/Src/usart.c **** 
 487:Core/Src/usart.c ****     /* USART2 interrupt Init */
 488:Core/Src/usart.c ****     HAL_NVIC_SetPriority(USART2_IRQn, 1, 0);
 489:Core/Src/usart.c ****     HAL_NVIC_EnableIRQ(USART2_IRQn);
 490:Core/Src/usart.c ****   /* USER CODE BEGIN USART2_MspInit 1 */
 491:Core/Src/usart.c **** 
 492:Core/Src/usart.c ****   /* USER CODE END USART2_MspInit 1 */
 493:Core/Src/usart.c ****   }
 494:Core/Src/usart.c ****   else if(uartHandle->Instance==USART3)
 685              		.loc 1 494 8 is_stmt 1 view .LVU221
 686              		.loc 1 494 10 is_stmt 0 view .LVU222
 687 0038 944A     		ldr	r2, .L93+16
 688 003a 9342     		cmp	r3, r2
 689 003c 00F09381 		beq	.L82
 690              	.L61:
 495:Core/Src/usart.c ****   {
 496:Core/Src/usart.c ****   /* USER CODE BEGIN USART3_MspInit 0 */
 497:Core/Src/usart.c **** 
 498:Core/Src/usart.c ****   /* USER CODE END USART3_MspInit 0 */
ARM GAS  C:\Users\blue\AppData\Local\Temp\ccjNjakL.s 			page 22


 499:Core/Src/usart.c **** 
 500:Core/Src/usart.c ****   /** Initializes the peripherals clock
 501:Core/Src/usart.c ****   */
 502:Core/Src/usart.c ****     PeriphClkInitStruct.PeriphClockSelection = RCC_PERIPHCLK_USART3;
 503:Core/Src/usart.c ****     PeriphClkInitStruct.Usart234578ClockSelection = RCC_USART234578CLKSOURCE_D2PCLK1;
 504:Core/Src/usart.c ****     if (HAL_RCCEx_PeriphCLKConfig(&PeriphClkInitStruct) != HAL_OK)
 505:Core/Src/usart.c ****     {
 506:Core/Src/usart.c ****       Error_Handler();
 507:Core/Src/usart.c ****     }
 508:Core/Src/usart.c **** 
 509:Core/Src/usart.c ****     /* USART3 clock enable */
 510:Core/Src/usart.c ****     __HAL_RCC_USART3_CLK_ENABLE();
 511:Core/Src/usart.c **** 
 512:Core/Src/usart.c ****     __HAL_RCC_GPIOB_CLK_ENABLE();
 513:Core/Src/usart.c ****     /**USART3 GPIO Configuration
 514:Core/Src/usart.c ****     PB10     ------> USART3_TX
 515:Core/Src/usart.c ****     PB11     ------> USART3_RX
 516:Core/Src/usart.c ****     */
 517:Core/Src/usart.c ****     GPIO_InitStruct.Pin = MV_USART3_TX_Pin|MV_USART3_RX_Pin;
 518:Core/Src/usart.c ****     GPIO_InitStruct.Mode = GPIO_MODE_AF_PP;
 519:Core/Src/usart.c ****     GPIO_InitStruct.Pull = GPIO_NOPULL;
 520:Core/Src/usart.c ****     GPIO_InitStruct.Speed = GPIO_SPEED_FREQ_LOW;
 521:Core/Src/usart.c ****     GPIO_InitStruct.Alternate = GPIO_AF7_USART3;
 522:Core/Src/usart.c ****     HAL_GPIO_Init(GPIOB, &GPIO_InitStruct);
 523:Core/Src/usart.c **** 
 524:Core/Src/usart.c ****     /* USART3 DMA Init */
 525:Core/Src/usart.c ****     /* USART3_RX Init */
 526:Core/Src/usart.c ****     hdma_usart3_rx.Instance = DMA1_Stream5;
 527:Core/Src/usart.c ****     hdma_usart3_rx.Init.Request = DMA_REQUEST_USART3_RX;
 528:Core/Src/usart.c ****     hdma_usart3_rx.Init.Direction = DMA_PERIPH_TO_MEMORY;
 529:Core/Src/usart.c ****     hdma_usart3_rx.Init.PeriphInc = DMA_PINC_DISABLE;
 530:Core/Src/usart.c ****     hdma_usart3_rx.Init.MemInc = DMA_MINC_ENABLE;
 531:Core/Src/usart.c ****     hdma_usart3_rx.Init.PeriphDataAlignment = DMA_PDATAALIGN_BYTE;
 532:Core/Src/usart.c ****     hdma_usart3_rx.Init.MemDataAlignment = DMA_MDATAALIGN_BYTE;
 533:Core/Src/usart.c ****     hdma_usart3_rx.Init.Mode = DMA_NORMAL;
 534:Core/Src/usart.c ****     hdma_usart3_rx.Init.Priority = DMA_PRIORITY_HIGH;
 535:Core/Src/usart.c ****     hdma_usart3_rx.Init.FIFOMode = DMA_FIFOMODE_DISABLE;
 536:Core/Src/usart.c ****     if (HAL_DMA_Init(&hdma_usart3_rx) != HAL_OK)
 537:Core/Src/usart.c ****     {
 538:Core/Src/usart.c ****       Error_Handler();
 539:Core/Src/usart.c ****     }
 540:Core/Src/usart.c **** 
 541:Core/Src/usart.c ****     __HAL_LINKDMA(uartHandle,hdmarx,hdma_usart3_rx);
 542:Core/Src/usart.c **** 
 543:Core/Src/usart.c ****     /* USART3 interrupt Init */
 544:Core/Src/usart.c ****     HAL_NVIC_SetPriority(USART3_IRQn, 1, 0);
 545:Core/Src/usart.c ****     HAL_NVIC_EnableIRQ(USART3_IRQn);
 546:Core/Src/usart.c ****   /* USER CODE BEGIN USART3_MspInit 1 */
 547:Core/Src/usart.c **** 
 548:Core/Src/usart.c ****   /* USER CODE END USART3_MspInit 1 */
 549:Core/Src/usart.c ****   }
 550:Core/Src/usart.c **** }
 691              		.loc 1 550 1 view .LVU223
 692 0040 43B0     		add	sp, sp, #268
 693              	.LCFI7:
 694              		.cfi_remember_state
 695              		.cfi_def_cfa_offset 20
ARM GAS  C:\Users\blue\AppData\Local\Temp\ccjNjakL.s 			page 23


 696              		@ sp needed
 697 0042 F0BD     		pop	{r4, r5, r6, r7, pc}
 698              	.LVL43:
 699              	.L78:
 700              	.LCFI8:
 701              		.cfi_restore_state
 270:Core/Src/usart.c ****     PeriphClkInitStruct.Usart234578ClockSelection = RCC_USART234578CLKSOURCE_D2PCLK1;
 702              		.loc 1 270 5 is_stmt 1 view .LVU224
 270:Core/Src/usart.c ****     PeriphClkInitStruct.Usart234578ClockSelection = RCC_USART234578CLKSOURCE_D2PCLK1;
 703              		.loc 1 270 46 is_stmt 0 view .LVU225
 704 0044 0222     		movs	r2, #2
 705 0046 0023     		movs	r3, #0
 706 0048 CDE90C23 		strd	r2, [sp, #48]
 271:Core/Src/usart.c ****     if (HAL_RCCEx_PeriphCLKConfig(&PeriphClkInitStruct) != HAL_OK)
 707              		.loc 1 271 5 is_stmt 1 view .LVU226
 272:Core/Src/usart.c ****     {
 708              		.loc 1 272 5 view .LVU227
 272:Core/Src/usart.c ****     {
 709              		.loc 1 272 9 is_stmt 0 view .LVU228
 710 004c 0CA8     		add	r0, sp, #48
 711 004e FFF7FEFF 		bl	HAL_RCCEx_PeriphCLKConfig
 712              	.LVL44:
 272:Core/Src/usart.c ****     {
 713              		.loc 1 272 8 view .LVU229
 714 0052 0028     		cmp	r0, #0
 715 0054 47D1     		bne	.L83
 716              	.L63:
 278:Core/Src/usart.c **** 
 717              		.loc 1 278 5 is_stmt 1 view .LVU230
 718              	.LBB2:
 278:Core/Src/usart.c **** 
 719              		.loc 1 278 5 view .LVU231
 278:Core/Src/usart.c **** 
 720              		.loc 1 278 5 view .LVU232
 721 0056 8E4B     		ldr	r3, .L93+20
 722 0058 D3F8E820 		ldr	r2, [r3, #232]
 723 005c 42F40022 		orr	r2, r2, #524288
 724 0060 C3F8E820 		str	r2, [r3, #232]
 278:Core/Src/usart.c **** 
 725              		.loc 1 278 5 view .LVU233
 726 0064 D3F8E820 		ldr	r2, [r3, #232]
 727 0068 02F40022 		and	r2, r2, #524288
 728 006c 0192     		str	r2, [sp, #4]
 278:Core/Src/usart.c **** 
 729              		.loc 1 278 5 view .LVU234
 730 006e 019A     		ldr	r2, [sp, #4]
 731              	.LBE2:
 278:Core/Src/usart.c **** 
 732              		.loc 1 278 5 view .LVU235
 280:Core/Src/usart.c ****     /**UART4 GPIO Configuration
 733              		.loc 1 280 5 view .LVU236
 734              	.LBB3:
 280:Core/Src/usart.c ****     /**UART4 GPIO Configuration
 735              		.loc 1 280 5 view .LVU237
 280:Core/Src/usart.c ****     /**UART4 GPIO Configuration
 736              		.loc 1 280 5 view .LVU238
 737 0070 D3F8E020 		ldr	r2, [r3, #224]
ARM GAS  C:\Users\blue\AppData\Local\Temp\ccjNjakL.s 			page 24


 738 0074 42F00402 		orr	r2, r2, #4
 739 0078 C3F8E020 		str	r2, [r3, #224]
 280:Core/Src/usart.c ****     /**UART4 GPIO Configuration
 740              		.loc 1 280 5 view .LVU239
 741 007c D3F8E030 		ldr	r3, [r3, #224]
 742 0080 03F00403 		and	r3, r3, #4
 743 0084 0293     		str	r3, [sp, #8]
 280:Core/Src/usart.c ****     /**UART4 GPIO Configuration
 744              		.loc 1 280 5 view .LVU240
 745 0086 029B     		ldr	r3, [sp, #8]
 746              	.LBE3:
 280:Core/Src/usart.c ****     /**UART4 GPIO Configuration
 747              		.loc 1 280 5 view .LVU241
 285:Core/Src/usart.c ****     GPIO_InitStruct.Mode = GPIO_MODE_AF_PP;
 748              		.loc 1 285 5 view .LVU242
 285:Core/Src/usart.c ****     GPIO_InitStruct.Mode = GPIO_MODE_AF_PP;
 749              		.loc 1 285 25 is_stmt 0 view .LVU243
 750 0088 4FF44063 		mov	r3, #3072
 751 008c 3D93     		str	r3, [sp, #244]
 286:Core/Src/usart.c ****     GPIO_InitStruct.Pull = GPIO_NOPULL;
 752              		.loc 1 286 5 is_stmt 1 view .LVU244
 286:Core/Src/usart.c ****     GPIO_InitStruct.Pull = GPIO_NOPULL;
 753              		.loc 1 286 26 is_stmt 0 view .LVU245
 754 008e 0223     		movs	r3, #2
 755 0090 3E93     		str	r3, [sp, #248]
 287:Core/Src/usart.c ****     GPIO_InitStruct.Speed = GPIO_SPEED_FREQ_LOW;
 756              		.loc 1 287 5 is_stmt 1 view .LVU246
 287:Core/Src/usart.c ****     GPIO_InitStruct.Speed = GPIO_SPEED_FREQ_LOW;
 757              		.loc 1 287 26 is_stmt 0 view .LVU247
 758 0092 0025     		movs	r5, #0
 759 0094 3F95     		str	r5, [sp, #252]
 288:Core/Src/usart.c ****     GPIO_InitStruct.Alternate = GPIO_AF8_UART4;
 760              		.loc 1 288 5 is_stmt 1 view .LVU248
 288:Core/Src/usart.c ****     GPIO_InitStruct.Alternate = GPIO_AF8_UART4;
 761              		.loc 1 288 27 is_stmt 0 view .LVU249
 762 0096 4095     		str	r5, [sp, #256]
 289:Core/Src/usart.c ****     HAL_GPIO_Init(GPIOC, &GPIO_InitStruct);
 763              		.loc 1 289 5 is_stmt 1 view .LVU250
 289:Core/Src/usart.c ****     HAL_GPIO_Init(GPIOC, &GPIO_InitStruct);
 764              		.loc 1 289 31 is_stmt 0 view .LVU251
 765 0098 0823     		movs	r3, #8
 766 009a 4193     		str	r3, [sp, #260]
 290:Core/Src/usart.c **** 
 767              		.loc 1 290 5 is_stmt 1 view .LVU252
 768 009c 3DA9     		add	r1, sp, #244
 769 009e 7D48     		ldr	r0, .L93+24
 770 00a0 FFF7FEFF 		bl	HAL_GPIO_Init
 771              	.LVL45:
 294:Core/Src/usart.c ****     hdma_uart4_rx.Init.Request = DMA_REQUEST_UART4_RX;
 772              		.loc 1 294 5 view .LVU253
 294:Core/Src/usart.c ****     hdma_uart4_rx.Init.Request = DMA_REQUEST_UART4_RX;
 773              		.loc 1 294 28 is_stmt 0 view .LVU254
 774 00a4 7C48     		ldr	r0, .L93+28
 775 00a6 7D4B     		ldr	r3, .L93+32
 776 00a8 0360     		str	r3, [r0]
 295:Core/Src/usart.c ****     hdma_uart4_rx.Init.Direction = DMA_PERIPH_TO_MEMORY;
 777              		.loc 1 295 5 is_stmt 1 view .LVU255
ARM GAS  C:\Users\blue\AppData\Local\Temp\ccjNjakL.s 			page 25


 295:Core/Src/usart.c ****     hdma_uart4_rx.Init.Direction = DMA_PERIPH_TO_MEMORY;
 778              		.loc 1 295 32 is_stmt 0 view .LVU256
 779 00aa 3F23     		movs	r3, #63
 780 00ac 4360     		str	r3, [r0, #4]
 296:Core/Src/usart.c ****     hdma_uart4_rx.Init.PeriphInc = DMA_PINC_DISABLE;
 781              		.loc 1 296 5 is_stmt 1 view .LVU257
 296:Core/Src/usart.c ****     hdma_uart4_rx.Init.PeriphInc = DMA_PINC_DISABLE;
 782              		.loc 1 296 34 is_stmt 0 view .LVU258
 783 00ae 8560     		str	r5, [r0, #8]
 297:Core/Src/usart.c ****     hdma_uart4_rx.Init.MemInc = DMA_MINC_ENABLE;
 784              		.loc 1 297 5 is_stmt 1 view .LVU259
 297:Core/Src/usart.c ****     hdma_uart4_rx.Init.MemInc = DMA_MINC_ENABLE;
 785              		.loc 1 297 34 is_stmt 0 view .LVU260
 786 00b0 C560     		str	r5, [r0, #12]
 298:Core/Src/usart.c ****     hdma_uart4_rx.Init.PeriphDataAlignment = DMA_PDATAALIGN_BYTE;
 787              		.loc 1 298 5 is_stmt 1 view .LVU261
 298:Core/Src/usart.c ****     hdma_uart4_rx.Init.PeriphDataAlignment = DMA_PDATAALIGN_BYTE;
 788              		.loc 1 298 31 is_stmt 0 view .LVU262
 789 00b2 4FF48063 		mov	r3, #1024
 790 00b6 0361     		str	r3, [r0, #16]
 299:Core/Src/usart.c ****     hdma_uart4_rx.Init.MemDataAlignment = DMA_MDATAALIGN_BYTE;
 791              		.loc 1 299 5 is_stmt 1 view .LVU263
 299:Core/Src/usart.c ****     hdma_uart4_rx.Init.MemDataAlignment = DMA_MDATAALIGN_BYTE;
 792              		.loc 1 299 44 is_stmt 0 view .LVU264
 793 00b8 4561     		str	r5, [r0, #20]
 300:Core/Src/usart.c ****     hdma_uart4_rx.Init.Mode = DMA_NORMAL;
 794              		.loc 1 300 5 is_stmt 1 view .LVU265
 300:Core/Src/usart.c ****     hdma_uart4_rx.Init.Mode = DMA_NORMAL;
 795              		.loc 1 300 41 is_stmt 0 view .LVU266
 796 00ba 8561     		str	r5, [r0, #24]
 301:Core/Src/usart.c ****     hdma_uart4_rx.Init.Priority = DMA_PRIORITY_MEDIUM;
 797              		.loc 1 301 5 is_stmt 1 view .LVU267
 301:Core/Src/usart.c ****     hdma_uart4_rx.Init.Priority = DMA_PRIORITY_MEDIUM;
 798              		.loc 1 301 29 is_stmt 0 view .LVU268
 799 00bc C561     		str	r5, [r0, #28]
 302:Core/Src/usart.c ****     hdma_uart4_rx.Init.FIFOMode = DMA_FIFOMODE_DISABLE;
 800              		.loc 1 302 5 is_stmt 1 view .LVU269
 302:Core/Src/usart.c ****     hdma_uart4_rx.Init.FIFOMode = DMA_FIFOMODE_DISABLE;
 801              		.loc 1 302 33 is_stmt 0 view .LVU270
 802 00be 4FF48033 		mov	r3, #65536
 803 00c2 0362     		str	r3, [r0, #32]
 303:Core/Src/usart.c ****     if (HAL_DMA_Init(&hdma_uart4_rx) != HAL_OK)
 804              		.loc 1 303 5 is_stmt 1 view .LVU271
 303:Core/Src/usart.c ****     if (HAL_DMA_Init(&hdma_uart4_rx) != HAL_OK)
 805              		.loc 1 303 33 is_stmt 0 view .LVU272
 806 00c4 4562     		str	r5, [r0, #36]
 304:Core/Src/usart.c ****     {
 807              		.loc 1 304 5 is_stmt 1 view .LVU273
 304:Core/Src/usart.c ****     {
 808              		.loc 1 304 9 is_stmt 0 view .LVU274
 809 00c6 FFF7FEFF 		bl	HAL_DMA_Init
 810              	.LVL46:
 304:Core/Src/usart.c ****     {
 811              		.loc 1 304 8 view .LVU275
 812 00ca 78B9     		cbnz	r0, .L84
 813              	.L64:
 309:Core/Src/usart.c **** 
ARM GAS  C:\Users\blue\AppData\Local\Temp\ccjNjakL.s 			page 26


 814              		.loc 1 309 5 is_stmt 1 view .LVU276
 309:Core/Src/usart.c **** 
 815              		.loc 1 309 5 view .LVU277
 816 00cc 724B     		ldr	r3, .L93+28
 817 00ce C4F88030 		str	r3, [r4, #128]
 309:Core/Src/usart.c **** 
 818              		.loc 1 309 5 view .LVU278
 819 00d2 9C63     		str	r4, [r3, #56]
 309:Core/Src/usart.c **** 
 820              		.loc 1 309 5 view .LVU279
 312:Core/Src/usart.c ****     HAL_NVIC_EnableIRQ(UART4_IRQn);
 821              		.loc 1 312 5 view .LVU280
 822 00d4 0022     		movs	r2, #0
 823 00d6 0121     		movs	r1, #1
 824 00d8 3420     		movs	r0, #52
 825 00da FFF7FEFF 		bl	HAL_NVIC_SetPriority
 826              	.LVL47:
 313:Core/Src/usart.c ****   /* USER CODE BEGIN UART4_MspInit 1 */
 827              		.loc 1 313 5 view .LVU281
 828 00de 3420     		movs	r0, #52
 829 00e0 FFF7FEFF 		bl	HAL_NVIC_EnableIRQ
 830              	.LVL48:
 831 00e4 ACE7     		b	.L61
 832              	.L83:
 274:Core/Src/usart.c ****     }
 833              		.loc 1 274 7 view .LVU282
 834 00e6 FFF7FEFF 		bl	Error_Handler
 835              	.LVL49:
 836 00ea B4E7     		b	.L63
 837              	.L84:
 306:Core/Src/usart.c ****     }
 838              		.loc 1 306 7 view .LVU283
 839 00ec FFF7FEFF 		bl	Error_Handler
 840              	.LVL50:
 841 00f0 ECE7     		b	.L64
 842              	.L79:
 326:Core/Src/usart.c ****     PeriphClkInitStruct.Usart234578ClockSelection = RCC_USART234578CLKSOURCE_D2PCLK1;
 843              		.loc 1 326 5 view .LVU284
 326:Core/Src/usart.c ****     PeriphClkInitStruct.Usart234578ClockSelection = RCC_USART234578CLKSOURCE_D2PCLK1;
 844              		.loc 1 326 46 is_stmt 0 view .LVU285
 845 00f2 0222     		movs	r2, #2
 846 00f4 0023     		movs	r3, #0
 847 00f6 CDE90C23 		strd	r2, [sp, #48]
 327:Core/Src/usart.c ****     if (HAL_RCCEx_PeriphCLKConfig(&PeriphClkInitStruct) != HAL_OK)
 848              		.loc 1 327 5 is_stmt 1 view .LVU286
 328:Core/Src/usart.c ****     {
 849              		.loc 1 328 5 view .LVU287
 328:Core/Src/usart.c ****     {
 850              		.loc 1 328 9 is_stmt 0 view .LVU288
 851 00fa 0CA8     		add	r0, sp, #48
 852 00fc FFF7FEFF 		bl	HAL_RCCEx_PeriphCLKConfig
 853              	.LVL51:
 328:Core/Src/usart.c ****     {
 854              		.loc 1 328 8 view .LVU289
 855 0100 0028     		cmp	r0, #0
 856 0102 5DD1     		bne	.L85
 857              	.L67:
ARM GAS  C:\Users\blue\AppData\Local\Temp\ccjNjakL.s 			page 27


 334:Core/Src/usart.c **** 
 858              		.loc 1 334 5 is_stmt 1 view .LVU290
 859              	.LBB4:
 334:Core/Src/usart.c **** 
 860              		.loc 1 334 5 view .LVU291
 334:Core/Src/usart.c **** 
 861              		.loc 1 334 5 view .LVU292
 862 0104 624B     		ldr	r3, .L93+20
 863 0106 D3F8E820 		ldr	r2, [r3, #232]
 864 010a 42F48012 		orr	r2, r2, #1048576
 865 010e C3F8E820 		str	r2, [r3, #232]
 334:Core/Src/usart.c **** 
 866              		.loc 1 334 5 view .LVU293
 867 0112 D3F8E820 		ldr	r2, [r3, #232]
 868 0116 02F48012 		and	r2, r2, #1048576
 869 011a 0392     		str	r2, [sp, #12]
 334:Core/Src/usart.c **** 
 870              		.loc 1 334 5 view .LVU294
 871 011c 039A     		ldr	r2, [sp, #12]
 872              	.LBE4:
 334:Core/Src/usart.c **** 
 873              		.loc 1 334 5 view .LVU295
 336:Core/Src/usart.c ****     __HAL_RCC_GPIOD_CLK_ENABLE();
 874              		.loc 1 336 5 view .LVU296
 875              	.LBB5:
 336:Core/Src/usart.c ****     __HAL_RCC_GPIOD_CLK_ENABLE();
 876              		.loc 1 336 5 view .LVU297
 336:Core/Src/usart.c ****     __HAL_RCC_GPIOD_CLK_ENABLE();
 877              		.loc 1 336 5 view .LVU298
 878 011e D3F8E020 		ldr	r2, [r3, #224]
 879 0122 42F00402 		orr	r2, r2, #4
 880 0126 C3F8E020 		str	r2, [r3, #224]
 336:Core/Src/usart.c ****     __HAL_RCC_GPIOD_CLK_ENABLE();
 881              		.loc 1 336 5 view .LVU299
 882 012a D3F8E020 		ldr	r2, [r3, #224]
 883 012e 02F00402 		and	r2, r2, #4
 884 0132 0492     		str	r2, [sp, #16]
 336:Core/Src/usart.c ****     __HAL_RCC_GPIOD_CLK_ENABLE();
 885              		.loc 1 336 5 view .LVU300
 886 0134 049A     		ldr	r2, [sp, #16]
 887              	.LBE5:
 336:Core/Src/usart.c ****     __HAL_RCC_GPIOD_CLK_ENABLE();
 888              		.loc 1 336 5 view .LVU301
 337:Core/Src/usart.c ****     /**UART5 GPIO Configuration
 889              		.loc 1 337 5 view .LVU302
 890              	.LBB6:
 337:Core/Src/usart.c ****     /**UART5 GPIO Configuration
 891              		.loc 1 337 5 view .LVU303
 337:Core/Src/usart.c ****     /**UART5 GPIO Configuration
 892              		.loc 1 337 5 view .LVU304
 893 0136 D3F8E020 		ldr	r2, [r3, #224]
 894 013a 42F00802 		orr	r2, r2, #8
 895 013e C3F8E020 		str	r2, [r3, #224]
 337:Core/Src/usart.c ****     /**UART5 GPIO Configuration
 896              		.loc 1 337 5 view .LVU305
 897 0142 D3F8E030 		ldr	r3, [r3, #224]
 898 0146 03F00803 		and	r3, r3, #8
ARM GAS  C:\Users\blue\AppData\Local\Temp\ccjNjakL.s 			page 28


 899 014a 0593     		str	r3, [sp, #20]
 337:Core/Src/usart.c ****     /**UART5 GPIO Configuration
 900              		.loc 1 337 5 view .LVU306
 901 014c 059B     		ldr	r3, [sp, #20]
 902              	.LBE6:
 337:Core/Src/usart.c ****     /**UART5 GPIO Configuration
 903              		.loc 1 337 5 view .LVU307
 342:Core/Src/usart.c ****     GPIO_InitStruct.Mode = GPIO_MODE_AF_PP;
 904              		.loc 1 342 5 view .LVU308
 342:Core/Src/usart.c ****     GPIO_InitStruct.Mode = GPIO_MODE_AF_PP;
 905              		.loc 1 342 25 is_stmt 0 view .LVU309
 906 014e 4FF48053 		mov	r3, #4096
 907 0152 3D93     		str	r3, [sp, #244]
 343:Core/Src/usart.c ****     GPIO_InitStruct.Pull = GPIO_NOPULL;
 908              		.loc 1 343 5 is_stmt 1 view .LVU310
 343:Core/Src/usart.c ****     GPIO_InitStruct.Pull = GPIO_NOPULL;
 909              		.loc 1 343 26 is_stmt 0 view .LVU311
 910 0154 0227     		movs	r7, #2
 911 0156 3E97     		str	r7, [sp, #248]
 344:Core/Src/usart.c ****     GPIO_InitStruct.Speed = GPIO_SPEED_FREQ_LOW;
 912              		.loc 1 344 5 is_stmt 1 view .LVU312
 344:Core/Src/usart.c ****     GPIO_InitStruct.Speed = GPIO_SPEED_FREQ_LOW;
 913              		.loc 1 344 26 is_stmt 0 view .LVU313
 914 0158 0025     		movs	r5, #0
 915 015a 3F95     		str	r5, [sp, #252]
 345:Core/Src/usart.c ****     GPIO_InitStruct.Alternate = GPIO_AF8_UART5;
 916              		.loc 1 345 5 is_stmt 1 view .LVU314
 345:Core/Src/usart.c ****     GPIO_InitStruct.Alternate = GPIO_AF8_UART5;
 917              		.loc 1 345 27 is_stmt 0 view .LVU315
 918 015c 4095     		str	r5, [sp, #256]
 346:Core/Src/usart.c ****     HAL_GPIO_Init(GYRO_UART5_TX_GPIO_Port, &GPIO_InitStruct);
 919              		.loc 1 346 5 is_stmt 1 view .LVU316
 346:Core/Src/usart.c ****     HAL_GPIO_Init(GYRO_UART5_TX_GPIO_Port, &GPIO_InitStruct);
 920              		.loc 1 346 31 is_stmt 0 view .LVU317
 921 015e 0826     		movs	r6, #8
 922 0160 4196     		str	r6, [sp, #260]
 347:Core/Src/usart.c **** 
 923              		.loc 1 347 5 is_stmt 1 view .LVU318
 924 0162 3DA9     		add	r1, sp, #244
 925 0164 4B48     		ldr	r0, .L93+24
 926 0166 FFF7FEFF 		bl	HAL_GPIO_Init
 927              	.LVL52:
 349:Core/Src/usart.c ****     GPIO_InitStruct.Mode = GPIO_MODE_AF_PP;
 928              		.loc 1 349 5 view .LVU319
 349:Core/Src/usart.c ****     GPIO_InitStruct.Mode = GPIO_MODE_AF_PP;
 929              		.loc 1 349 25 is_stmt 0 view .LVU320
 930 016a 0423     		movs	r3, #4
 931 016c 3D93     		str	r3, [sp, #244]
 350:Core/Src/usart.c ****     GPIO_InitStruct.Pull = GPIO_NOPULL;
 932              		.loc 1 350 5 is_stmt 1 view .LVU321
 350:Core/Src/usart.c ****     GPIO_InitStruct.Pull = GPIO_NOPULL;
 933              		.loc 1 350 26 is_stmt 0 view .LVU322
 934 016e 3E97     		str	r7, [sp, #248]
 351:Core/Src/usart.c ****     GPIO_InitStruct.Speed = GPIO_SPEED_FREQ_LOW;
 935              		.loc 1 351 5 is_stmt 1 view .LVU323
 351:Core/Src/usart.c ****     GPIO_InitStruct.Speed = GPIO_SPEED_FREQ_LOW;
 936              		.loc 1 351 26 is_stmt 0 view .LVU324
ARM GAS  C:\Users\blue\AppData\Local\Temp\ccjNjakL.s 			page 29


 937 0170 3F95     		str	r5, [sp, #252]
 352:Core/Src/usart.c ****     GPIO_InitStruct.Alternate = GPIO_AF8_UART5;
 938              		.loc 1 352 5 is_stmt 1 view .LVU325
 352:Core/Src/usart.c ****     GPIO_InitStruct.Alternate = GPIO_AF8_UART5;
 939              		.loc 1 352 27 is_stmt 0 view .LVU326
 940 0172 4095     		str	r5, [sp, #256]
 353:Core/Src/usart.c ****     HAL_GPIO_Init(GYRO_UART5_RX_GPIO_Port, &GPIO_InitStruct);
 941              		.loc 1 353 5 is_stmt 1 view .LVU327
 353:Core/Src/usart.c ****     HAL_GPIO_Init(GYRO_UART5_RX_GPIO_Port, &GPIO_InitStruct);
 942              		.loc 1 353 31 is_stmt 0 view .LVU328
 943 0174 4196     		str	r6, [sp, #260]
 354:Core/Src/usart.c **** 
 944              		.loc 1 354 5 is_stmt 1 view .LVU329
 945 0176 3DA9     		add	r1, sp, #244
 946 0178 4948     		ldr	r0, .L93+36
 947 017a FFF7FEFF 		bl	HAL_GPIO_Init
 948              	.LVL53:
 358:Core/Src/usart.c ****     hdma_uart5_rx.Init.Request = DMA_REQUEST_UART5_RX;
 949              		.loc 1 358 5 view .LVU330
 358:Core/Src/usart.c ****     hdma_uart5_rx.Init.Request = DMA_REQUEST_UART5_RX;
 950              		.loc 1 358 28 is_stmt 0 view .LVU331
 951 017e 4948     		ldr	r0, .L93+40
 952 0180 494B     		ldr	r3, .L93+44
 953 0182 0360     		str	r3, [r0]
 359:Core/Src/usart.c ****     hdma_uart5_rx.Init.Direction = DMA_PERIPH_TO_MEMORY;
 954              		.loc 1 359 5 is_stmt 1 view .LVU332
 359:Core/Src/usart.c ****     hdma_uart5_rx.Init.Direction = DMA_PERIPH_TO_MEMORY;
 955              		.loc 1 359 32 is_stmt 0 view .LVU333
 956 0184 4123     		movs	r3, #65
 957 0186 4360     		str	r3, [r0, #4]
 360:Core/Src/usart.c ****     hdma_uart5_rx.Init.PeriphInc = DMA_PINC_DISABLE;
 958              		.loc 1 360 5 is_stmt 1 view .LVU334
 360:Core/Src/usart.c ****     hdma_uart5_rx.Init.PeriphInc = DMA_PINC_DISABLE;
 959              		.loc 1 360 34 is_stmt 0 view .LVU335
 960 0188 8560     		str	r5, [r0, #8]
 361:Core/Src/usart.c ****     hdma_uart5_rx.Init.MemInc = DMA_MINC_ENABLE;
 961              		.loc 1 361 5 is_stmt 1 view .LVU336
 361:Core/Src/usart.c ****     hdma_uart5_rx.Init.MemInc = DMA_MINC_ENABLE;
 962              		.loc 1 361 34 is_stmt 0 view .LVU337
 963 018a C560     		str	r5, [r0, #12]
 362:Core/Src/usart.c ****     hdma_uart5_rx.Init.PeriphDataAlignment = DMA_PDATAALIGN_BYTE;
 964              		.loc 1 362 5 is_stmt 1 view .LVU338
 362:Core/Src/usart.c ****     hdma_uart5_rx.Init.PeriphDataAlignment = DMA_PDATAALIGN_BYTE;
 965              		.loc 1 362 31 is_stmt 0 view .LVU339
 966 018c 4FF48063 		mov	r3, #1024
 967 0190 0361     		str	r3, [r0, #16]
 363:Core/Src/usart.c ****     hdma_uart5_rx.Init.MemDataAlignment = DMA_MDATAALIGN_BYTE;
 968              		.loc 1 363 5 is_stmt 1 view .LVU340
 363:Core/Src/usart.c ****     hdma_uart5_rx.Init.MemDataAlignment = DMA_MDATAALIGN_BYTE;
 969              		.loc 1 363 44 is_stmt 0 view .LVU341
 970 0192 4561     		str	r5, [r0, #20]
 364:Core/Src/usart.c ****     hdma_uart5_rx.Init.Mode = DMA_NORMAL;
 971              		.loc 1 364 5 is_stmt 1 view .LVU342
 364:Core/Src/usart.c ****     hdma_uart5_rx.Init.Mode = DMA_NORMAL;
 972              		.loc 1 364 41 is_stmt 0 view .LVU343
 973 0194 8561     		str	r5, [r0, #24]
 365:Core/Src/usart.c ****     hdma_uart5_rx.Init.Priority = DMA_PRIORITY_HIGH;
ARM GAS  C:\Users\blue\AppData\Local\Temp\ccjNjakL.s 			page 30


 974              		.loc 1 365 5 is_stmt 1 view .LVU344
 365:Core/Src/usart.c ****     hdma_uart5_rx.Init.Priority = DMA_PRIORITY_HIGH;
 975              		.loc 1 365 29 is_stmt 0 view .LVU345
 976 0196 C561     		str	r5, [r0, #28]
 366:Core/Src/usart.c ****     hdma_uart5_rx.Init.FIFOMode = DMA_FIFOMODE_DISABLE;
 977              		.loc 1 366 5 is_stmt 1 view .LVU346
 366:Core/Src/usart.c ****     hdma_uart5_rx.Init.FIFOMode = DMA_FIFOMODE_DISABLE;
 978              		.loc 1 366 33 is_stmt 0 view .LVU347
 979 0198 4FF40033 		mov	r3, #131072
 980 019c 0362     		str	r3, [r0, #32]
 367:Core/Src/usart.c ****     if (HAL_DMA_Init(&hdma_uart5_rx) != HAL_OK)
 981              		.loc 1 367 5 is_stmt 1 view .LVU348
 367:Core/Src/usart.c ****     if (HAL_DMA_Init(&hdma_uart5_rx) != HAL_OK)
 982              		.loc 1 367 33 is_stmt 0 view .LVU349
 983 019e 4562     		str	r5, [r0, #36]
 368:Core/Src/usart.c ****     {
 984              		.loc 1 368 5 is_stmt 1 view .LVU350
 368:Core/Src/usart.c ****     {
 985              		.loc 1 368 9 is_stmt 0 view .LVU351
 986 01a0 FFF7FEFF 		bl	HAL_DMA_Init
 987              	.LVL54:
 368:Core/Src/usart.c ****     {
 988              		.loc 1 368 8 view .LVU352
 989 01a4 78B9     		cbnz	r0, .L86
 990              	.L68:
 373:Core/Src/usart.c **** 
 991              		.loc 1 373 5 is_stmt 1 view .LVU353
 373:Core/Src/usart.c **** 
 992              		.loc 1 373 5 view .LVU354
 993 01a6 3F4B     		ldr	r3, .L93+40
 994 01a8 C4F88030 		str	r3, [r4, #128]
 373:Core/Src/usart.c **** 
 995              		.loc 1 373 5 view .LVU355
 996 01ac 9C63     		str	r4, [r3, #56]
 373:Core/Src/usart.c **** 
 997              		.loc 1 373 5 view .LVU356
 376:Core/Src/usart.c ****     HAL_NVIC_EnableIRQ(UART5_IRQn);
 998              		.loc 1 376 5 view .LVU357
 999 01ae 0022     		movs	r2, #0
 1000 01b0 0121     		movs	r1, #1
 1001 01b2 3520     		movs	r0, #53
 1002 01b4 FFF7FEFF 		bl	HAL_NVIC_SetPriority
 1003              	.LVL55:
 377:Core/Src/usart.c ****   /* USER CODE BEGIN UART5_MspInit 1 */
 1004              		.loc 1 377 5 view .LVU358
 1005 01b8 3520     		movs	r0, #53
 1006 01ba FFF7FEFF 		bl	HAL_NVIC_EnableIRQ
 1007              	.LVL56:
 1008 01be 3FE7     		b	.L61
 1009              	.L85:
 330:Core/Src/usart.c ****     }
 1010              		.loc 1 330 7 view .LVU359
 1011 01c0 FFF7FEFF 		bl	Error_Handler
 1012              	.LVL57:
 1013 01c4 9EE7     		b	.L67
 1014              	.L86:
 370:Core/Src/usart.c ****     }
ARM GAS  C:\Users\blue\AppData\Local\Temp\ccjNjakL.s 			page 31


 1015              		.loc 1 370 7 view .LVU360
 1016 01c6 FFF7FEFF 		bl	Error_Handler
 1017              	.LVL58:
 1018 01ca ECE7     		b	.L68
 1019              	.L80:
 390:Core/Src/usart.c ****     PeriphClkInitStruct.Usart16ClockSelection = RCC_USART16CLKSOURCE_D2PCLK2;
 1020              		.loc 1 390 5 view .LVU361
 390:Core/Src/usart.c ****     PeriphClkInitStruct.Usart16ClockSelection = RCC_USART16CLKSOURCE_D2PCLK2;
 1021              		.loc 1 390 46 is_stmt 0 view .LVU362
 1022 01cc 0122     		movs	r2, #1
 1023 01ce 0023     		movs	r3, #0
 1024 01d0 CDE90C23 		strd	r2, [sp, #48]
 391:Core/Src/usart.c ****     if (HAL_RCCEx_PeriphCLKConfig(&PeriphClkInitStruct) != HAL_OK)
 1025              		.loc 1 391 5 is_stmt 1 view .LVU363
 392:Core/Src/usart.c ****     {
 1026              		.loc 1 392 5 view .LVU364
 392:Core/Src/usart.c ****     {
 1027              		.loc 1 392 9 is_stmt 0 view .LVU365
 1028 01d4 0CA8     		add	r0, sp, #48
 1029 01d6 FFF7FEFF 		bl	HAL_RCCEx_PeriphCLKConfig
 1030              	.LVL59:
 392:Core/Src/usart.c ****     {
 1031              		.loc 1 392 8 view .LVU366
 1032 01da 0028     		cmp	r0, #0
 1033 01dc 47D1     		bne	.L87
 1034              	.L70:
 398:Core/Src/usart.c **** 
 1035              		.loc 1 398 5 is_stmt 1 view .LVU367
 1036              	.LBB7:
 398:Core/Src/usart.c **** 
 1037              		.loc 1 398 5 view .LVU368
 398:Core/Src/usart.c **** 
 1038              		.loc 1 398 5 view .LVU369
 1039 01de 2C4B     		ldr	r3, .L93+20
 1040 01e0 D3F8F020 		ldr	r2, [r3, #240]
 1041 01e4 42F01002 		orr	r2, r2, #16
 1042 01e8 C3F8F020 		str	r2, [r3, #240]
 398:Core/Src/usart.c **** 
 1043              		.loc 1 398 5 view .LVU370
 1044 01ec D3F8F020 		ldr	r2, [r3, #240]
 1045 01f0 02F01002 		and	r2, r2, #16
 1046 01f4 0692     		str	r2, [sp, #24]
 398:Core/Src/usart.c **** 
 1047              		.loc 1 398 5 view .LVU371
 1048 01f6 069A     		ldr	r2, [sp, #24]
 1049              	.LBE7:
 398:Core/Src/usart.c **** 
 1050              		.loc 1 398 5 view .LVU372
 400:Core/Src/usart.c ****     /**USART1 GPIO Configuration
 1051              		.loc 1 400 5 view .LVU373
 1052              	.LBB8:
 400:Core/Src/usart.c ****     /**USART1 GPIO Configuration
 1053              		.loc 1 400 5 view .LVU374
 400:Core/Src/usart.c ****     /**USART1 GPIO Configuration
 1054              		.loc 1 400 5 view .LVU375
 1055 01f8 D3F8E020 		ldr	r2, [r3, #224]
 1056 01fc 42F00102 		orr	r2, r2, #1
ARM GAS  C:\Users\blue\AppData\Local\Temp\ccjNjakL.s 			page 32


 1057 0200 C3F8E020 		str	r2, [r3, #224]
 400:Core/Src/usart.c ****     /**USART1 GPIO Configuration
 1058              		.loc 1 400 5 view .LVU376
 1059 0204 D3F8E030 		ldr	r3, [r3, #224]
 1060 0208 03F00103 		and	r3, r3, #1
 1061 020c 0793     		str	r3, [sp, #28]
 400:Core/Src/usart.c ****     /**USART1 GPIO Configuration
 1062              		.loc 1 400 5 view .LVU377
 1063 020e 079B     		ldr	r3, [sp, #28]
 1064              	.LBE8:
 400:Core/Src/usart.c ****     /**USART1 GPIO Configuration
 1065              		.loc 1 400 5 view .LVU378
 405:Core/Src/usart.c ****     GPIO_InitStruct.Mode = GPIO_MODE_AF_PP;
 1066              		.loc 1 405 5 view .LVU379
 405:Core/Src/usart.c ****     GPIO_InitStruct.Mode = GPIO_MODE_AF_PP;
 1067              		.loc 1 405 25 is_stmt 0 view .LVU380
 1068 0210 4FF4C063 		mov	r3, #1536
 1069 0214 3D93     		str	r3, [sp, #244]
 406:Core/Src/usart.c ****     GPIO_InitStruct.Pull = GPIO_NOPULL;
 1070              		.loc 1 406 5 is_stmt 1 view .LVU381
 406:Core/Src/usart.c ****     GPIO_InitStruct.Pull = GPIO_NOPULL;
 1071              		.loc 1 406 26 is_stmt 0 view .LVU382
 1072 0216 0223     		movs	r3, #2
 1073 0218 3E93     		str	r3, [sp, #248]
 407:Core/Src/usart.c ****     GPIO_InitStruct.Speed = GPIO_SPEED_FREQ_LOW;
 1074              		.loc 1 407 5 is_stmt 1 view .LVU383
 407:Core/Src/usart.c ****     GPIO_InitStruct.Speed = GPIO_SPEED_FREQ_LOW;
 1075              		.loc 1 407 26 is_stmt 0 view .LVU384
 1076 021a 0025     		movs	r5, #0
 1077 021c 3F95     		str	r5, [sp, #252]
 408:Core/Src/usart.c ****     GPIO_InitStruct.Alternate = GPIO_AF7_USART1;
 1078              		.loc 1 408 5 is_stmt 1 view .LVU385
 408:Core/Src/usart.c ****     GPIO_InitStruct.Alternate = GPIO_AF7_USART1;
 1079              		.loc 1 408 27 is_stmt 0 view .LVU386
 1080 021e 4095     		str	r5, [sp, #256]
 409:Core/Src/usart.c ****     HAL_GPIO_Init(GPIOA, &GPIO_InitStruct);
 1081              		.loc 1 409 5 is_stmt 1 view .LVU387
 409:Core/Src/usart.c ****     HAL_GPIO_Init(GPIOA, &GPIO_InitStruct);
 1082              		.loc 1 409 31 is_stmt 0 view .LVU388
 1083 0220 0723     		movs	r3, #7
 1084 0222 4193     		str	r3, [sp, #260]
 410:Core/Src/usart.c **** 
 1085              		.loc 1 410 5 is_stmt 1 view .LVU389
 1086 0224 3DA9     		add	r1, sp, #244
 1087 0226 2148     		ldr	r0, .L93+48
 1088 0228 FFF7FEFF 		bl	HAL_GPIO_Init
 1089              	.LVL60:
 414:Core/Src/usart.c ****     hdma_usart1_rx.Init.Request = DMA_REQUEST_USART1_RX;
 1090              		.loc 1 414 5 view .LVU390
 414:Core/Src/usart.c ****     hdma_usart1_rx.Init.Request = DMA_REQUEST_USART1_RX;
 1091              		.loc 1 414 29 is_stmt 0 view .LVU391
 1092 022c 2048     		ldr	r0, .L93+52
 1093 022e 214B     		ldr	r3, .L93+56
 1094 0230 0360     		str	r3, [r0]
 415:Core/Src/usart.c ****     hdma_usart1_rx.Init.Direction = DMA_PERIPH_TO_MEMORY;
 1095              		.loc 1 415 5 is_stmt 1 view .LVU392
 415:Core/Src/usart.c ****     hdma_usart1_rx.Init.Direction = DMA_PERIPH_TO_MEMORY;
ARM GAS  C:\Users\blue\AppData\Local\Temp\ccjNjakL.s 			page 33


 1096              		.loc 1 415 33 is_stmt 0 view .LVU393
 1097 0232 2923     		movs	r3, #41
 1098 0234 4360     		str	r3, [r0, #4]
 416:Core/Src/usart.c ****     hdma_usart1_rx.Init.PeriphInc = DMA_PINC_DISABLE;
 1099              		.loc 1 416 5 is_stmt 1 view .LVU394
 416:Core/Src/usart.c ****     hdma_usart1_rx.Init.PeriphInc = DMA_PINC_DISABLE;
 1100              		.loc 1 416 35 is_stmt 0 view .LVU395
 1101 0236 8560     		str	r5, [r0, #8]
 417:Core/Src/usart.c ****     hdma_usart1_rx.Init.MemInc = DMA_MINC_ENABLE;
 1102              		.loc 1 417 5 is_stmt 1 view .LVU396
 417:Core/Src/usart.c ****     hdma_usart1_rx.Init.MemInc = DMA_MINC_ENABLE;
 1103              		.loc 1 417 35 is_stmt 0 view .LVU397
 1104 0238 C560     		str	r5, [r0, #12]
 418:Core/Src/usart.c ****     hdma_usart1_rx.Init.PeriphDataAlignment = DMA_PDATAALIGN_BYTE;
 1105              		.loc 1 418 5 is_stmt 1 view .LVU398
 418:Core/Src/usart.c ****     hdma_usart1_rx.Init.PeriphDataAlignment = DMA_PDATAALIGN_BYTE;
 1106              		.loc 1 418 32 is_stmt 0 view .LVU399
 1107 023a 4FF48063 		mov	r3, #1024
 1108 023e 0361     		str	r3, [r0, #16]
 419:Core/Src/usart.c ****     hdma_usart1_rx.Init.MemDataAlignment = DMA_MDATAALIGN_BYTE;
 1109              		.loc 1 419 5 is_stmt 1 view .LVU400
 419:Core/Src/usart.c ****     hdma_usart1_rx.Init.MemDataAlignment = DMA_MDATAALIGN_BYTE;
 1110              		.loc 1 419 45 is_stmt 0 view .LVU401
 1111 0240 4561     		str	r5, [r0, #20]
 420:Core/Src/usart.c ****     hdma_usart1_rx.Init.Mode = DMA_NORMAL;
 1112              		.loc 1 420 5 is_stmt 1 view .LVU402
 420:Core/Src/usart.c ****     hdma_usart1_rx.Init.Mode = DMA_NORMAL;
 1113              		.loc 1 420 42 is_stmt 0 view .LVU403
 1114 0242 8561     		str	r5, [r0, #24]
 421:Core/Src/usart.c ****     hdma_usart1_rx.Init.Priority = DMA_PRIORITY_VERY_HIGH;
 1115              		.loc 1 421 5 is_stmt 1 view .LVU404
 421:Core/Src/usart.c ****     hdma_usart1_rx.Init.Priority = DMA_PRIORITY_VERY_HIGH;
 1116              		.loc 1 421 30 is_stmt 0 view .LVU405
 1117 0244 C561     		str	r5, [r0, #28]
 422:Core/Src/usart.c ****     hdma_usart1_rx.Init.FIFOMode = DMA_FIFOMODE_DISABLE;
 1118              		.loc 1 422 5 is_stmt 1 view .LVU406
 422:Core/Src/usart.c ****     hdma_usart1_rx.Init.FIFOMode = DMA_FIFOMODE_DISABLE;
 1119              		.loc 1 422 34 is_stmt 0 view .LVU407
 1120 0246 4FF44033 		mov	r3, #196608
 1121 024a 0362     		str	r3, [r0, #32]
 423:Core/Src/usart.c ****     if (HAL_DMA_Init(&hdma_usart1_rx) != HAL_OK)
 1122              		.loc 1 423 5 is_stmt 1 view .LVU408
 423:Core/Src/usart.c ****     if (HAL_DMA_Init(&hdma_usart1_rx) != HAL_OK)
 1123              		.loc 1 423 34 is_stmt 0 view .LVU409
 1124 024c 4562     		str	r5, [r0, #36]
 424:Core/Src/usart.c ****     {
 1125              		.loc 1 424 5 is_stmt 1 view .LVU410
 424:Core/Src/usart.c ****     {
 1126              		.loc 1 424 9 is_stmt 0 view .LVU411
 1127 024e FFF7FEFF 		bl	HAL_DMA_Init
 1128              	.LVL61:
 424:Core/Src/usart.c ****     {
 1129              		.loc 1 424 8 view .LVU412
 1130 0252 78B9     		cbnz	r0, .L88
 1131              	.L71:
 429:Core/Src/usart.c **** 
 1132              		.loc 1 429 5 is_stmt 1 view .LVU413
ARM GAS  C:\Users\blue\AppData\Local\Temp\ccjNjakL.s 			page 34


 429:Core/Src/usart.c **** 
 1133              		.loc 1 429 5 view .LVU414
 1134 0254 164B     		ldr	r3, .L93+52
 1135 0256 C4F88030 		str	r3, [r4, #128]
 429:Core/Src/usart.c **** 
 1136              		.loc 1 429 5 view .LVU415
 1137 025a 9C63     		str	r4, [r3, #56]
 429:Core/Src/usart.c **** 
 1138              		.loc 1 429 5 view .LVU416
 432:Core/Src/usart.c ****     HAL_NVIC_EnableIRQ(USART1_IRQn);
 1139              		.loc 1 432 5 view .LVU417
 1140 025c 0022     		movs	r2, #0
 1141 025e 0121     		movs	r1, #1
 1142 0260 2520     		movs	r0, #37
 1143 0262 FFF7FEFF 		bl	HAL_NVIC_SetPriority
 1144              	.LVL62:
 433:Core/Src/usart.c ****   /* USER CODE BEGIN USART1_MspInit 1 */
 1145              		.loc 1 433 5 view .LVU418
 1146 0266 2520     		movs	r0, #37
 1147 0268 FFF7FEFF 		bl	HAL_NVIC_EnableIRQ
 1148              	.LVL63:
 1149 026c E8E6     		b	.L61
 1150              	.L87:
 394:Core/Src/usart.c ****     }
 1151              		.loc 1 394 7 view .LVU419
 1152 026e FFF7FEFF 		bl	Error_Handler
 1153              	.LVL64:
 1154 0272 B4E7     		b	.L70
 1155              	.L88:
 426:Core/Src/usart.c ****     }
 1156              		.loc 1 426 7 view .LVU420
 1157 0274 FFF7FEFF 		bl	Error_Handler
 1158              	.LVL65:
 1159 0278 ECE7     		b	.L71
 1160              	.L94:
 1161 027a 00BF     		.align	2
 1162              	.L93:
 1163 027c 004C0040 		.word	1073761280
 1164 0280 00500040 		.word	1073762304
 1165 0284 00100140 		.word	1073811456
 1166 0288 00440040 		.word	1073759232
 1167 028c 00480040 		.word	1073760256
 1168 0290 00440258 		.word	1476543488
 1169 0294 00080258 		.word	1476528128
 1170 0298 00000000 		.word	.LANCHOR5
 1171 029c 58000240 		.word	1073872984
 1172 02a0 000C0258 		.word	1476529152
 1173 02a4 00000000 		.word	.LANCHOR6
 1174 02a8 70000240 		.word	1073873008
 1175 02ac 00000258 		.word	1476526080
 1176 02b0 00000000 		.word	.LANCHOR7
 1177 02b4 10000240 		.word	1073872912
 1178              	.L81:
 446:Core/Src/usart.c ****     PeriphClkInitStruct.Usart234578ClockSelection = RCC_USART234578CLKSOURCE_D2PCLK1;
 1179              		.loc 1 446 5 view .LVU421
 446:Core/Src/usart.c ****     PeriphClkInitStruct.Usart234578ClockSelection = RCC_USART234578CLKSOURCE_D2PCLK1;
 1180              		.loc 1 446 46 is_stmt 0 view .LVU422
ARM GAS  C:\Users\blue\AppData\Local\Temp\ccjNjakL.s 			page 35


 1181 02b8 0222     		movs	r2, #2
 1182 02ba 0023     		movs	r3, #0
 1183 02bc CDE90C23 		strd	r2, [sp, #48]
 447:Core/Src/usart.c ****     if (HAL_RCCEx_PeriphCLKConfig(&PeriphClkInitStruct) != HAL_OK)
 1184              		.loc 1 447 5 is_stmt 1 view .LVU423
 448:Core/Src/usart.c ****     {
 1185              		.loc 1 448 5 view .LVU424
 448:Core/Src/usart.c ****     {
 1186              		.loc 1 448 9 is_stmt 0 view .LVU425
 1187 02c0 0CA8     		add	r0, sp, #48
 1188 02c2 FFF7FEFF 		bl	HAL_RCCEx_PeriphCLKConfig
 1189              	.LVL66:
 448:Core/Src/usart.c ****     {
 1190              		.loc 1 448 8 view .LVU426
 1191 02c6 0028     		cmp	r0, #0
 1192 02c8 47D1     		bne	.L89
 1193              	.L73:
 454:Core/Src/usart.c **** 
 1194              		.loc 1 454 5 is_stmt 1 view .LVU427
 1195              	.LBB9:
 454:Core/Src/usart.c **** 
 1196              		.loc 1 454 5 view .LVU428
 454:Core/Src/usart.c **** 
 1197              		.loc 1 454 5 view .LVU429
 1198 02ca 524B     		ldr	r3, .L95
 1199 02cc D3F8E820 		ldr	r2, [r3, #232]
 1200 02d0 42F40032 		orr	r2, r2, #131072
 1201 02d4 C3F8E820 		str	r2, [r3, #232]
 454:Core/Src/usart.c **** 
 1202              		.loc 1 454 5 view .LVU430
 1203 02d8 D3F8E820 		ldr	r2, [r3, #232]
 1204 02dc 02F40032 		and	r2, r2, #131072
 1205 02e0 0892     		str	r2, [sp, #32]
 454:Core/Src/usart.c **** 
 1206              		.loc 1 454 5 view .LVU431
 1207 02e2 089A     		ldr	r2, [sp, #32]
 1208              	.LBE9:
 454:Core/Src/usart.c **** 
 1209              		.loc 1 454 5 view .LVU432
 456:Core/Src/usart.c ****     /**USART2 GPIO Configuration
 1210              		.loc 1 456 5 view .LVU433
 1211              	.LBB10:
 456:Core/Src/usart.c ****     /**USART2 GPIO Configuration
 1212              		.loc 1 456 5 view .LVU434
 456:Core/Src/usart.c ****     /**USART2 GPIO Configuration
 1213              		.loc 1 456 5 view .LVU435
 1214 02e4 D3F8E020 		ldr	r2, [r3, #224]
 1215 02e8 42F00102 		orr	r2, r2, #1
 1216 02ec C3F8E020 		str	r2, [r3, #224]
 456:Core/Src/usart.c ****     /**USART2 GPIO Configuration
 1217              		.loc 1 456 5 view .LVU436
 1218 02f0 D3F8E030 		ldr	r3, [r3, #224]
 1219 02f4 03F00103 		and	r3, r3, #1
 1220 02f8 0993     		str	r3, [sp, #36]
 456:Core/Src/usart.c ****     /**USART2 GPIO Configuration
 1221              		.loc 1 456 5 view .LVU437
 1222 02fa 099B     		ldr	r3, [sp, #36]
ARM GAS  C:\Users\blue\AppData\Local\Temp\ccjNjakL.s 			page 36


 1223              	.LBE10:
 456:Core/Src/usart.c ****     /**USART2 GPIO Configuration
 1224              		.loc 1 456 5 view .LVU438
 461:Core/Src/usart.c ****     GPIO_InitStruct.Mode = GPIO_MODE_AF_PP;
 1225              		.loc 1 461 5 view .LVU439
 461:Core/Src/usart.c ****     GPIO_InitStruct.Mode = GPIO_MODE_AF_PP;
 1226              		.loc 1 461 25 is_stmt 0 view .LVU440
 1227 02fc 0C23     		movs	r3, #12
 1228 02fe 3D93     		str	r3, [sp, #244]
 462:Core/Src/usart.c ****     GPIO_InitStruct.Pull = GPIO_PULLUP;
 1229              		.loc 1 462 5 is_stmt 1 view .LVU441
 462:Core/Src/usart.c ****     GPIO_InitStruct.Pull = GPIO_PULLUP;
 1230              		.loc 1 462 26 is_stmt 0 view .LVU442
 1231 0300 0223     		movs	r3, #2
 1232 0302 3E93     		str	r3, [sp, #248]
 463:Core/Src/usart.c ****     GPIO_InitStruct.Speed = GPIO_SPEED_FREQ_HIGH;
 1233              		.loc 1 463 5 is_stmt 1 view .LVU443
 463:Core/Src/usart.c ****     GPIO_InitStruct.Speed = GPIO_SPEED_FREQ_HIGH;
 1234              		.loc 1 463 26 is_stmt 0 view .LVU444
 1235 0304 0122     		movs	r2, #1
 1236 0306 3F92     		str	r2, [sp, #252]
 464:Core/Src/usart.c ****     GPIO_InitStruct.Alternate = GPIO_AF7_USART2;
 1237              		.loc 1 464 5 is_stmt 1 view .LVU445
 464:Core/Src/usart.c ****     GPIO_InitStruct.Alternate = GPIO_AF7_USART2;
 1238              		.loc 1 464 27 is_stmt 0 view .LVU446
 1239 0308 4093     		str	r3, [sp, #256]
 465:Core/Src/usart.c ****     HAL_GPIO_Init(GPIOA, &GPIO_InitStruct);
 1240              		.loc 1 465 5 is_stmt 1 view .LVU447
 465:Core/Src/usart.c ****     HAL_GPIO_Init(GPIOA, &GPIO_InitStruct);
 1241              		.loc 1 465 31 is_stmt 0 view .LVU448
 1242 030a 0723     		movs	r3, #7
 1243 030c 4193     		str	r3, [sp, #260]
 466:Core/Src/usart.c **** 
 1244              		.loc 1 466 5 is_stmt 1 view .LVU449
 1245 030e 3DA9     		add	r1, sp, #244
 1246 0310 4148     		ldr	r0, .L95+4
 1247 0312 FFF7FEFF 		bl	HAL_GPIO_Init
 1248              	.LVL67:
 470:Core/Src/usart.c ****     hdma_usart2_rx.Init.Request = DMA_REQUEST_USART2_RX;
 1249              		.loc 1 470 5 view .LVU450
 470:Core/Src/usart.c ****     hdma_usart2_rx.Init.Request = DMA_REQUEST_USART2_RX;
 1250              		.loc 1 470 29 is_stmt 0 view .LVU451
 1251 0316 4148     		ldr	r0, .L95+8
 1252 0318 414B     		ldr	r3, .L95+12
 1253 031a 0360     		str	r3, [r0]
 471:Core/Src/usart.c ****     hdma_usart2_rx.Init.Direction = DMA_PERIPH_TO_MEMORY;
 1254              		.loc 1 471 5 is_stmt 1 view .LVU452
 471:Core/Src/usart.c ****     hdma_usart2_rx.Init.Direction = DMA_PERIPH_TO_MEMORY;
 1255              		.loc 1 471 33 is_stmt 0 view .LVU453
 1256 031c 2B23     		movs	r3, #43
 1257 031e 4360     		str	r3, [r0, #4]
 472:Core/Src/usart.c ****     hdma_usart2_rx.Init.PeriphInc = DMA_PINC_DISABLE;
 1258              		.loc 1 472 5 is_stmt 1 view .LVU454
 472:Core/Src/usart.c ****     hdma_usart2_rx.Init.PeriphInc = DMA_PINC_DISABLE;
 1259              		.loc 1 472 35 is_stmt 0 view .LVU455
 1260 0320 0023     		movs	r3, #0
 1261 0322 8360     		str	r3, [r0, #8]
ARM GAS  C:\Users\blue\AppData\Local\Temp\ccjNjakL.s 			page 37


 473:Core/Src/usart.c ****     hdma_usart2_rx.Init.MemInc = DMA_MINC_ENABLE;
 1262              		.loc 1 473 5 is_stmt 1 view .LVU456
 473:Core/Src/usart.c ****     hdma_usart2_rx.Init.MemInc = DMA_MINC_ENABLE;
 1263              		.loc 1 473 35 is_stmt 0 view .LVU457
 1264 0324 C360     		str	r3, [r0, #12]
 474:Core/Src/usart.c ****     hdma_usart2_rx.Init.PeriphDataAlignment = DMA_PDATAALIGN_BYTE;
 1265              		.loc 1 474 5 is_stmt 1 view .LVU458
 474:Core/Src/usart.c ****     hdma_usart2_rx.Init.PeriphDataAlignment = DMA_PDATAALIGN_BYTE;
 1266              		.loc 1 474 32 is_stmt 0 view .LVU459
 1267 0326 4FF48062 		mov	r2, #1024
 1268 032a 0261     		str	r2, [r0, #16]
 475:Core/Src/usart.c ****     hdma_usart2_rx.Init.MemDataAlignment = DMA_MDATAALIGN_BYTE;
 1269              		.loc 1 475 5 is_stmt 1 view .LVU460
 475:Core/Src/usart.c ****     hdma_usart2_rx.Init.MemDataAlignment = DMA_MDATAALIGN_BYTE;
 1270              		.loc 1 475 45 is_stmt 0 view .LVU461
 1271 032c 4361     		str	r3, [r0, #20]
 476:Core/Src/usart.c ****     hdma_usart2_rx.Init.Mode = DMA_NORMAL;
 1272              		.loc 1 476 5 is_stmt 1 view .LVU462
 476:Core/Src/usart.c ****     hdma_usart2_rx.Init.Mode = DMA_NORMAL;
 1273              		.loc 1 476 42 is_stmt 0 view .LVU463
 1274 032e 8361     		str	r3, [r0, #24]
 477:Core/Src/usart.c ****     hdma_usart2_rx.Init.Priority = DMA_PRIORITY_MEDIUM;
 1275              		.loc 1 477 5 is_stmt 1 view .LVU464
 477:Core/Src/usart.c ****     hdma_usart2_rx.Init.Priority = DMA_PRIORITY_MEDIUM;
 1276              		.loc 1 477 30 is_stmt 0 view .LVU465
 1277 0330 C361     		str	r3, [r0, #28]
 478:Core/Src/usart.c ****     hdma_usart2_rx.Init.FIFOMode = DMA_FIFOMODE_DISABLE;
 1278              		.loc 1 478 5 is_stmt 1 view .LVU466
 478:Core/Src/usart.c ****     hdma_usart2_rx.Init.FIFOMode = DMA_FIFOMODE_DISABLE;
 1279              		.loc 1 478 34 is_stmt 0 view .LVU467
 1280 0332 4FF48032 		mov	r2, #65536
 1281 0336 0262     		str	r2, [r0, #32]
 479:Core/Src/usart.c ****     if (HAL_DMA_Init(&hdma_usart2_rx) != HAL_OK)
 1282              		.loc 1 479 5 is_stmt 1 view .LVU468
 479:Core/Src/usart.c ****     if (HAL_DMA_Init(&hdma_usart2_rx) != HAL_OK)
 1283              		.loc 1 479 34 is_stmt 0 view .LVU469
 1284 0338 4362     		str	r3, [r0, #36]
 480:Core/Src/usart.c ****     {
 1285              		.loc 1 480 5 is_stmt 1 view .LVU470
 480:Core/Src/usart.c ****     {
 1286              		.loc 1 480 9 is_stmt 0 view .LVU471
 1287 033a FFF7FEFF 		bl	HAL_DMA_Init
 1288              	.LVL68:
 480:Core/Src/usart.c ****     {
 1289              		.loc 1 480 8 view .LVU472
 1290 033e 78B9     		cbnz	r0, .L90
 1291              	.L74:
 485:Core/Src/usart.c **** 
 1292              		.loc 1 485 5 is_stmt 1 view .LVU473
 485:Core/Src/usart.c **** 
 1293              		.loc 1 485 5 view .LVU474
 1294 0340 364B     		ldr	r3, .L95+8
 1295 0342 C4F88030 		str	r3, [r4, #128]
 485:Core/Src/usart.c **** 
 1296              		.loc 1 485 5 view .LVU475
 1297 0346 9C63     		str	r4, [r3, #56]
 485:Core/Src/usart.c **** 
ARM GAS  C:\Users\blue\AppData\Local\Temp\ccjNjakL.s 			page 38


 1298              		.loc 1 485 5 view .LVU476
 488:Core/Src/usart.c ****     HAL_NVIC_EnableIRQ(USART2_IRQn);
 1299              		.loc 1 488 5 view .LVU477
 1300 0348 0022     		movs	r2, #0
 1301 034a 0121     		movs	r1, #1
 1302 034c 2620     		movs	r0, #38
 1303 034e FFF7FEFF 		bl	HAL_NVIC_SetPriority
 1304              	.LVL69:
 489:Core/Src/usart.c ****   /* USER CODE BEGIN USART2_MspInit 1 */
 1305              		.loc 1 489 5 view .LVU478
 1306 0352 2620     		movs	r0, #38
 1307 0354 FFF7FEFF 		bl	HAL_NVIC_EnableIRQ
 1308              	.LVL70:
 1309 0358 72E6     		b	.L61
 1310              	.L89:
 450:Core/Src/usart.c ****     }
 1311              		.loc 1 450 7 view .LVU479
 1312 035a FFF7FEFF 		bl	Error_Handler
 1313              	.LVL71:
 1314 035e B4E7     		b	.L73
 1315              	.L90:
 482:Core/Src/usart.c ****     }
 1316              		.loc 1 482 7 view .LVU480
 1317 0360 FFF7FEFF 		bl	Error_Handler
 1318              	.LVL72:
 1319 0364 ECE7     		b	.L74
 1320              	.L82:
 502:Core/Src/usart.c ****     PeriphClkInitStruct.Usart234578ClockSelection = RCC_USART234578CLKSOURCE_D2PCLK1;
 1321              		.loc 1 502 5 view .LVU481
 502:Core/Src/usart.c ****     PeriphClkInitStruct.Usart234578ClockSelection = RCC_USART234578CLKSOURCE_D2PCLK1;
 1322              		.loc 1 502 46 is_stmt 0 view .LVU482
 1323 0366 0222     		movs	r2, #2
 1324 0368 0023     		movs	r3, #0
 1325 036a CDE90C23 		strd	r2, [sp, #48]
 503:Core/Src/usart.c ****     if (HAL_RCCEx_PeriphCLKConfig(&PeriphClkInitStruct) != HAL_OK)
 1326              		.loc 1 503 5 is_stmt 1 view .LVU483
 504:Core/Src/usart.c ****     {
 1327              		.loc 1 504 5 view .LVU484
 504:Core/Src/usart.c ****     {
 1328              		.loc 1 504 9 is_stmt 0 view .LVU485
 1329 036e 0CA8     		add	r0, sp, #48
 1330 0370 FFF7FEFF 		bl	HAL_RCCEx_PeriphCLKConfig
 1331              	.LVL73:
 504:Core/Src/usart.c ****     {
 1332              		.loc 1 504 8 view .LVU486
 1333 0374 0028     		cmp	r0, #0
 1334 0376 47D1     		bne	.L91
 1335              	.L75:
 510:Core/Src/usart.c **** 
 1336              		.loc 1 510 5 is_stmt 1 view .LVU487
 1337              	.LBB11:
 510:Core/Src/usart.c **** 
 1338              		.loc 1 510 5 view .LVU488
 510:Core/Src/usart.c **** 
 1339              		.loc 1 510 5 view .LVU489
 1340 0378 264B     		ldr	r3, .L95
 1341 037a D3F8E820 		ldr	r2, [r3, #232]
ARM GAS  C:\Users\blue\AppData\Local\Temp\ccjNjakL.s 			page 39


 1342 037e 42F48022 		orr	r2, r2, #262144
 1343 0382 C3F8E820 		str	r2, [r3, #232]
 510:Core/Src/usart.c **** 
 1344              		.loc 1 510 5 view .LVU490
 1345 0386 D3F8E820 		ldr	r2, [r3, #232]
 1346 038a 02F48022 		and	r2, r2, #262144
 1347 038e 0A92     		str	r2, [sp, #40]
 510:Core/Src/usart.c **** 
 1348              		.loc 1 510 5 view .LVU491
 1349 0390 0A9A     		ldr	r2, [sp, #40]
 1350              	.LBE11:
 510:Core/Src/usart.c **** 
 1351              		.loc 1 510 5 view .LVU492
 512:Core/Src/usart.c ****     /**USART3 GPIO Configuration
 1352              		.loc 1 512 5 view .LVU493
 1353              	.LBB12:
 512:Core/Src/usart.c ****     /**USART3 GPIO Configuration
 1354              		.loc 1 512 5 view .LVU494
 512:Core/Src/usart.c ****     /**USART3 GPIO Configuration
 1355              		.loc 1 512 5 view .LVU495
 1356 0392 D3F8E020 		ldr	r2, [r3, #224]
 1357 0396 42F00202 		orr	r2, r2, #2
 1358 039a C3F8E020 		str	r2, [r3, #224]
 512:Core/Src/usart.c ****     /**USART3 GPIO Configuration
 1359              		.loc 1 512 5 view .LVU496
 1360 039e D3F8E030 		ldr	r3, [r3, #224]
 1361 03a2 03F00203 		and	r3, r3, #2
 1362 03a6 0B93     		str	r3, [sp, #44]
 512:Core/Src/usart.c ****     /**USART3 GPIO Configuration
 1363              		.loc 1 512 5 view .LVU497
 1364 03a8 0B9B     		ldr	r3, [sp, #44]
 1365              	.LBE12:
 512:Core/Src/usart.c ****     /**USART3 GPIO Configuration
 1366              		.loc 1 512 5 view .LVU498
 517:Core/Src/usart.c ****     GPIO_InitStruct.Mode = GPIO_MODE_AF_PP;
 1367              		.loc 1 517 5 view .LVU499
 517:Core/Src/usart.c ****     GPIO_InitStruct.Mode = GPIO_MODE_AF_PP;
 1368              		.loc 1 517 25 is_stmt 0 view .LVU500
 1369 03aa 4FF44063 		mov	r3, #3072
 1370 03ae 3D93     		str	r3, [sp, #244]
 518:Core/Src/usart.c ****     GPIO_InitStruct.Pull = GPIO_NOPULL;
 1371              		.loc 1 518 5 is_stmt 1 view .LVU501
 518:Core/Src/usart.c ****     GPIO_InitStruct.Pull = GPIO_NOPULL;
 1372              		.loc 1 518 26 is_stmt 0 view .LVU502
 1373 03b0 0223     		movs	r3, #2
 1374 03b2 3E93     		str	r3, [sp, #248]
 519:Core/Src/usart.c ****     GPIO_InitStruct.Speed = GPIO_SPEED_FREQ_LOW;
 1375              		.loc 1 519 5 is_stmt 1 view .LVU503
 519:Core/Src/usart.c ****     GPIO_InitStruct.Speed = GPIO_SPEED_FREQ_LOW;
 1376              		.loc 1 519 26 is_stmt 0 view .LVU504
 1377 03b4 0025     		movs	r5, #0
 1378 03b6 3F95     		str	r5, [sp, #252]
 520:Core/Src/usart.c ****     GPIO_InitStruct.Alternate = GPIO_AF7_USART3;
 1379              		.loc 1 520 5 is_stmt 1 view .LVU505
 520:Core/Src/usart.c ****     GPIO_InitStruct.Alternate = GPIO_AF7_USART3;
 1380              		.loc 1 520 27 is_stmt 0 view .LVU506
 1381 03b8 4095     		str	r5, [sp, #256]
ARM GAS  C:\Users\blue\AppData\Local\Temp\ccjNjakL.s 			page 40


 521:Core/Src/usart.c ****     HAL_GPIO_Init(GPIOB, &GPIO_InitStruct);
 1382              		.loc 1 521 5 is_stmt 1 view .LVU507
 521:Core/Src/usart.c ****     HAL_GPIO_Init(GPIOB, &GPIO_InitStruct);
 1383              		.loc 1 521 31 is_stmt 0 view .LVU508
 1384 03ba 0723     		movs	r3, #7
 1385 03bc 4193     		str	r3, [sp, #260]
 522:Core/Src/usart.c **** 
 1386              		.loc 1 522 5 is_stmt 1 view .LVU509
 1387 03be 3DA9     		add	r1, sp, #244
 1388 03c0 1848     		ldr	r0, .L95+16
 1389 03c2 FFF7FEFF 		bl	HAL_GPIO_Init
 1390              	.LVL74:
 526:Core/Src/usart.c ****     hdma_usart3_rx.Init.Request = DMA_REQUEST_USART3_RX;
 1391              		.loc 1 526 5 view .LVU510
 526:Core/Src/usart.c ****     hdma_usart3_rx.Init.Request = DMA_REQUEST_USART3_RX;
 1392              		.loc 1 526 29 is_stmt 0 view .LVU511
 1393 03c6 1848     		ldr	r0, .L95+20
 1394 03c8 184B     		ldr	r3, .L95+24
 1395 03ca 0360     		str	r3, [r0]
 527:Core/Src/usart.c ****     hdma_usart3_rx.Init.Direction = DMA_PERIPH_TO_MEMORY;
 1396              		.loc 1 527 5 is_stmt 1 view .LVU512
 527:Core/Src/usart.c ****     hdma_usart3_rx.Init.Direction = DMA_PERIPH_TO_MEMORY;
 1397              		.loc 1 527 33 is_stmt 0 view .LVU513
 1398 03cc 2D23     		movs	r3, #45
 1399 03ce 4360     		str	r3, [r0, #4]
 528:Core/Src/usart.c ****     hdma_usart3_rx.Init.PeriphInc = DMA_PINC_DISABLE;
 1400              		.loc 1 528 5 is_stmt 1 view .LVU514
 528:Core/Src/usart.c ****     hdma_usart3_rx.Init.PeriphInc = DMA_PINC_DISABLE;
 1401              		.loc 1 528 35 is_stmt 0 view .LVU515
 1402 03d0 8560     		str	r5, [r0, #8]
 529:Core/Src/usart.c ****     hdma_usart3_rx.Init.MemInc = DMA_MINC_ENABLE;
 1403              		.loc 1 529 5 is_stmt 1 view .LVU516
 529:Core/Src/usart.c ****     hdma_usart3_rx.Init.MemInc = DMA_MINC_ENABLE;
 1404              		.loc 1 529 35 is_stmt 0 view .LVU517
 1405 03d2 C560     		str	r5, [r0, #12]
 530:Core/Src/usart.c ****     hdma_usart3_rx.Init.PeriphDataAlignment = DMA_PDATAALIGN_BYTE;
 1406              		.loc 1 530 5 is_stmt 1 view .LVU518
 530:Core/Src/usart.c ****     hdma_usart3_rx.Init.PeriphDataAlignment = DMA_PDATAALIGN_BYTE;
 1407              		.loc 1 530 32 is_stmt 0 view .LVU519
 1408 03d4 4FF48063 		mov	r3, #1024
 1409 03d8 0361     		str	r3, [r0, #16]
 531:Core/Src/usart.c ****     hdma_usart3_rx.Init.MemDataAlignment = DMA_MDATAALIGN_BYTE;
 1410              		.loc 1 531 5 is_stmt 1 view .LVU520
 531:Core/Src/usart.c ****     hdma_usart3_rx.Init.MemDataAlignment = DMA_MDATAALIGN_BYTE;
 1411              		.loc 1 531 45 is_stmt 0 view .LVU521
 1412 03da 4561     		str	r5, [r0, #20]
 532:Core/Src/usart.c ****     hdma_usart3_rx.Init.Mode = DMA_NORMAL;
 1413              		.loc 1 532 5 is_stmt 1 view .LVU522
 532:Core/Src/usart.c ****     hdma_usart3_rx.Init.Mode = DMA_NORMAL;
 1414              		.loc 1 532 42 is_stmt 0 view .LVU523
 1415 03dc 8561     		str	r5, [r0, #24]
 533:Core/Src/usart.c ****     hdma_usart3_rx.Init.Priority = DMA_PRIORITY_HIGH;
 1416              		.loc 1 533 5 is_stmt 1 view .LVU524
 533:Core/Src/usart.c ****     hdma_usart3_rx.Init.Priority = DMA_PRIORITY_HIGH;
 1417              		.loc 1 533 30 is_stmt 0 view .LVU525
 1418 03de C561     		str	r5, [r0, #28]
 534:Core/Src/usart.c ****     hdma_usart3_rx.Init.FIFOMode = DMA_FIFOMODE_DISABLE;
ARM GAS  C:\Users\blue\AppData\Local\Temp\ccjNjakL.s 			page 41


 1419              		.loc 1 534 5 is_stmt 1 view .LVU526
 534:Core/Src/usart.c ****     hdma_usart3_rx.Init.FIFOMode = DMA_FIFOMODE_DISABLE;
 1420              		.loc 1 534 34 is_stmt 0 view .LVU527
 1421 03e0 4FF40033 		mov	r3, #131072
 1422 03e4 0362     		str	r3, [r0, #32]
 535:Core/Src/usart.c ****     if (HAL_DMA_Init(&hdma_usart3_rx) != HAL_OK)
 1423              		.loc 1 535 5 is_stmt 1 view .LVU528
 535:Core/Src/usart.c ****     if (HAL_DMA_Init(&hdma_usart3_rx) != HAL_OK)
 1424              		.loc 1 535 34 is_stmt 0 view .LVU529
 1425 03e6 4562     		str	r5, [r0, #36]
 536:Core/Src/usart.c ****     {
 1426              		.loc 1 536 5 is_stmt 1 view .LVU530
 536:Core/Src/usart.c ****     {
 1427              		.loc 1 536 9 is_stmt 0 view .LVU531
 1428 03e8 FFF7FEFF 		bl	HAL_DMA_Init
 1429              	.LVL75:
 536:Core/Src/usart.c ****     {
 1430              		.loc 1 536 8 view .LVU532
 1431 03ec 78B9     		cbnz	r0, .L92
 1432              	.L76:
 541:Core/Src/usart.c **** 
 1433              		.loc 1 541 5 is_stmt 1 view .LVU533
 541:Core/Src/usart.c **** 
 1434              		.loc 1 541 5 view .LVU534
 1435 03ee 0E4B     		ldr	r3, .L95+20
 1436 03f0 C4F88030 		str	r3, [r4, #128]
 541:Core/Src/usart.c **** 
 1437              		.loc 1 541 5 view .LVU535
 1438 03f4 9C63     		str	r4, [r3, #56]
 541:Core/Src/usart.c **** 
 1439              		.loc 1 541 5 view .LVU536
 544:Core/Src/usart.c ****     HAL_NVIC_EnableIRQ(USART3_IRQn);
 1440              		.loc 1 544 5 view .LVU537
 1441 03f6 0022     		movs	r2, #0
 1442 03f8 0121     		movs	r1, #1
 1443 03fa 2720     		movs	r0, #39
 1444 03fc FFF7FEFF 		bl	HAL_NVIC_SetPriority
 1445              	.LVL76:
 545:Core/Src/usart.c ****   /* USER CODE BEGIN USART3_MspInit 1 */
 1446              		.loc 1 545 5 view .LVU538
 1447 0400 2720     		movs	r0, #39
 1448 0402 FFF7FEFF 		bl	HAL_NVIC_EnableIRQ
 1449              	.LVL77:
 1450              		.loc 1 550 1 is_stmt 0 view .LVU539
 1451 0406 1BE6     		b	.L61
 1452              	.L91:
 506:Core/Src/usart.c ****     }
 1453              		.loc 1 506 7 is_stmt 1 view .LVU540
 1454 0408 FFF7FEFF 		bl	Error_Handler
 1455              	.LVL78:
 1456 040c B4E7     		b	.L75
 1457              	.L92:
 538:Core/Src/usart.c ****     }
 1458              		.loc 1 538 7 view .LVU541
 1459 040e FFF7FEFF 		bl	Error_Handler
 1460              	.LVL79:
 1461 0412 ECE7     		b	.L76
ARM GAS  C:\Users\blue\AppData\Local\Temp\ccjNjakL.s 			page 42


 1462              	.L96:
 1463              		.align	2
 1464              	.L95:
 1465 0414 00440258 		.word	1476543488
 1466 0418 00000258 		.word	1476526080
 1467 041c 00000000 		.word	.LANCHOR8
 1468 0420 28000240 		.word	1073872936
 1469 0424 00040258 		.word	1476527104
 1470 0428 00000000 		.word	.LANCHOR9
 1471 042c 88000240 		.word	1073873032
 1472              		.cfi_endproc
 1473              	.LFE149:
 1475              		.section	.text.HAL_UART_MspDeInit,"ax",%progbits
 1476              		.align	1
 1477              		.global	HAL_UART_MspDeInit
 1478              		.syntax unified
 1479              		.thumb
 1480              		.thumb_func
 1482              	HAL_UART_MspDeInit:
 1483              	.LVL80:
 1484              	.LFB150:
 551:Core/Src/usart.c **** 
 552:Core/Src/usart.c **** void HAL_UART_MspDeInit(UART_HandleTypeDef* uartHandle)
 553:Core/Src/usart.c **** {
 1485              		.loc 1 553 1 view -0
 1486              		.cfi_startproc
 1487              		@ args = 0, pretend = 0, frame = 0
 1488              		@ frame_needed = 0, uses_anonymous_args = 0
 1489              		.loc 1 553 1 is_stmt 0 view .LVU543
 1490 0000 10B5     		push	{r4, lr}
 1491              	.LCFI9:
 1492              		.cfi_def_cfa_offset 8
 1493              		.cfi_offset 4, -8
 1494              		.cfi_offset 14, -4
 1495 0002 0446     		mov	r4, r0
 554:Core/Src/usart.c **** 
 555:Core/Src/usart.c ****   if(uartHandle->Instance==UART4)
 1496              		.loc 1 555 3 is_stmt 1 view .LVU544
 1497              		.loc 1 555 16 is_stmt 0 view .LVU545
 1498 0004 0368     		ldr	r3, [r0]
 1499              		.loc 1 555 5 view .LVU546
 1500 0006 3B4A     		ldr	r2, .L109
 1501 0008 9342     		cmp	r3, r2
 1502 000a 0CD0     		beq	.L104
 556:Core/Src/usart.c ****   {
 557:Core/Src/usart.c ****   /* USER CODE BEGIN UART4_MspDeInit 0 */
 558:Core/Src/usart.c **** 
 559:Core/Src/usart.c ****   /* USER CODE END UART4_MspDeInit 0 */
 560:Core/Src/usart.c ****     /* Peripheral clock disable */
 561:Core/Src/usart.c ****     __HAL_RCC_UART4_CLK_DISABLE();
 562:Core/Src/usart.c **** 
 563:Core/Src/usart.c ****     /**UART4 GPIO Configuration
 564:Core/Src/usart.c ****     PC10     ------> UART4_TX
 565:Core/Src/usart.c ****     PC11     ------> UART4_RX
 566:Core/Src/usart.c ****     */
 567:Core/Src/usart.c ****     HAL_GPIO_DeInit(GPIOC, RLD_UART4_TX_Pin|RLD_UART4_RX_Pin);
 568:Core/Src/usart.c **** 
ARM GAS  C:\Users\blue\AppData\Local\Temp\ccjNjakL.s 			page 43


 569:Core/Src/usart.c ****     /* UART4 DMA DeInit */
 570:Core/Src/usart.c ****     HAL_DMA_DeInit(uartHandle->hdmarx);
 571:Core/Src/usart.c **** 
 572:Core/Src/usart.c ****     /* UART4 interrupt Deinit */
 573:Core/Src/usart.c ****     HAL_NVIC_DisableIRQ(UART4_IRQn);
 574:Core/Src/usart.c ****   /* USER CODE BEGIN UART4_MspDeInit 1 */
 575:Core/Src/usart.c **** 
 576:Core/Src/usart.c ****   /* USER CODE END UART4_MspDeInit 1 */
 577:Core/Src/usart.c ****   }
 578:Core/Src/usart.c ****   else if(uartHandle->Instance==UART5)
 1503              		.loc 1 578 8 is_stmt 1 view .LVU547
 1504              		.loc 1 578 10 is_stmt 0 view .LVU548
 1505 000c 3A4A     		ldr	r2, .L109+4
 1506 000e 9342     		cmp	r3, r2
 1507 0010 1DD0     		beq	.L105
 579:Core/Src/usart.c ****   {
 580:Core/Src/usart.c ****   /* USER CODE BEGIN UART5_MspDeInit 0 */
 581:Core/Src/usart.c **** 
 582:Core/Src/usart.c ****   /* USER CODE END UART5_MspDeInit 0 */
 583:Core/Src/usart.c ****     /* Peripheral clock disable */
 584:Core/Src/usart.c ****     __HAL_RCC_UART5_CLK_DISABLE();
 585:Core/Src/usart.c **** 
 586:Core/Src/usart.c ****     /**UART5 GPIO Configuration
 587:Core/Src/usart.c ****     PC12     ------> UART5_TX
 588:Core/Src/usart.c ****     PD2     ------> UART5_RX
 589:Core/Src/usart.c ****     */
 590:Core/Src/usart.c ****     HAL_GPIO_DeInit(GYRO_UART5_TX_GPIO_Port, GYRO_UART5_TX_Pin);
 591:Core/Src/usart.c **** 
 592:Core/Src/usart.c ****     HAL_GPIO_DeInit(GYRO_UART5_RX_GPIO_Port, GYRO_UART5_RX_Pin);
 593:Core/Src/usart.c **** 
 594:Core/Src/usart.c ****     /* UART5 DMA DeInit */
 595:Core/Src/usart.c ****     HAL_DMA_DeInit(uartHandle->hdmarx);
 596:Core/Src/usart.c **** 
 597:Core/Src/usart.c ****     /* UART5 interrupt Deinit */
 598:Core/Src/usart.c ****     HAL_NVIC_DisableIRQ(UART5_IRQn);
 599:Core/Src/usart.c ****   /* USER CODE BEGIN UART5_MspDeInit 1 */
 600:Core/Src/usart.c **** 
 601:Core/Src/usart.c ****   /* USER CODE END UART5_MspDeInit 1 */
 602:Core/Src/usart.c ****   }
 603:Core/Src/usart.c ****   else if(uartHandle->Instance==USART1)
 1508              		.loc 1 603 8 is_stmt 1 view .LVU549
 1509              		.loc 1 603 10 is_stmt 0 view .LVU550
 1510 0012 3A4A     		ldr	r2, .L109+8
 1511 0014 9342     		cmp	r3, r2
 1512 0016 32D0     		beq	.L106
 604:Core/Src/usart.c ****   {
 605:Core/Src/usart.c ****   /* USER CODE BEGIN USART1_MspDeInit 0 */
 606:Core/Src/usart.c **** 
 607:Core/Src/usart.c ****   /* USER CODE END USART1_MspDeInit 0 */
 608:Core/Src/usart.c ****     /* Peripheral clock disable */
 609:Core/Src/usart.c ****     __HAL_RCC_USART1_CLK_DISABLE();
 610:Core/Src/usart.c **** 
 611:Core/Src/usart.c ****     /**USART1 GPIO Configuration
 612:Core/Src/usart.c ****     PA10     ------> USART1_RX
 613:Core/Src/usart.c ****     PA9     ------> USART1_TX
 614:Core/Src/usart.c ****     */
 615:Core/Src/usart.c ****     HAL_GPIO_DeInit(GPIOA, BTH_USART1_RX_Pin|BTH_USART1_TX_Pin);
ARM GAS  C:\Users\blue\AppData\Local\Temp\ccjNjakL.s 			page 44


 616:Core/Src/usart.c **** 
 617:Core/Src/usart.c ****     /* USART1 DMA DeInit */
 618:Core/Src/usart.c ****     HAL_DMA_DeInit(uartHandle->hdmarx);
 619:Core/Src/usart.c **** 
 620:Core/Src/usart.c ****     /* USART1 interrupt Deinit */
 621:Core/Src/usart.c ****     HAL_NVIC_DisableIRQ(USART1_IRQn);
 622:Core/Src/usart.c ****   /* USER CODE BEGIN USART1_MspDeInit 1 */
 623:Core/Src/usart.c **** 
 624:Core/Src/usart.c ****   /* USER CODE END USART1_MspDeInit 1 */
 625:Core/Src/usart.c ****   }
 626:Core/Src/usart.c ****   else if(uartHandle->Instance==USART2)
 1513              		.loc 1 626 8 is_stmt 1 view .LVU551
 1514              		.loc 1 626 10 is_stmt 0 view .LVU552
 1515 0018 394A     		ldr	r2, .L109+12
 1516 001a 9342     		cmp	r3, r2
 1517 001c 43D0     		beq	.L107
 627:Core/Src/usart.c ****   {
 628:Core/Src/usart.c ****   /* USER CODE BEGIN USART2_MspDeInit 0 */
 629:Core/Src/usart.c **** 
 630:Core/Src/usart.c ****   /* USER CODE END USART2_MspDeInit 0 */
 631:Core/Src/usart.c ****     /* Peripheral clock disable */
 632:Core/Src/usart.c ****     __HAL_RCC_USART2_CLK_DISABLE();
 633:Core/Src/usart.c **** 
 634:Core/Src/usart.c ****     /**USART2 GPIO Configuration
 635:Core/Src/usart.c ****     PA2     ------> USART2_TX
 636:Core/Src/usart.c ****     PA3     ------> USART2_RX
 637:Core/Src/usart.c ****     */
 638:Core/Src/usart.c ****     HAL_GPIO_DeInit(GPIOA, LLD_USART2_TX_Pin|LLD_USART2_RX_Pin);
 639:Core/Src/usart.c **** 
 640:Core/Src/usart.c ****     /* USART2 DMA DeInit */
 641:Core/Src/usart.c ****     HAL_DMA_DeInit(uartHandle->hdmarx);
 642:Core/Src/usart.c **** 
 643:Core/Src/usart.c ****     /* USART2 interrupt Deinit */
 644:Core/Src/usart.c ****     HAL_NVIC_DisableIRQ(USART2_IRQn);
 645:Core/Src/usart.c ****   /* USER CODE BEGIN USART2_MspDeInit 1 */
 646:Core/Src/usart.c **** 
 647:Core/Src/usart.c ****   /* USER CODE END USART2_MspDeInit 1 */
 648:Core/Src/usart.c ****   }
 649:Core/Src/usart.c ****   else if(uartHandle->Instance==USART3)
 1518              		.loc 1 649 8 is_stmt 1 view .LVU553
 1519              		.loc 1 649 10 is_stmt 0 view .LVU554
 1520 001e 394A     		ldr	r2, .L109+16
 1521 0020 9342     		cmp	r3, r2
 1522 0022 53D0     		beq	.L108
 1523              	.LVL81:
 1524              	.L97:
 650:Core/Src/usart.c ****   {
 651:Core/Src/usart.c ****   /* USER CODE BEGIN USART3_MspDeInit 0 */
 652:Core/Src/usart.c **** 
 653:Core/Src/usart.c ****   /* USER CODE END USART3_MspDeInit 0 */
 654:Core/Src/usart.c ****     /* Peripheral clock disable */
 655:Core/Src/usart.c ****     __HAL_RCC_USART3_CLK_DISABLE();
 656:Core/Src/usart.c **** 
 657:Core/Src/usart.c ****     /**USART3 GPIO Configuration
 658:Core/Src/usart.c ****     PB10     ------> USART3_TX
 659:Core/Src/usart.c ****     PB11     ------> USART3_RX
 660:Core/Src/usart.c ****     */
ARM GAS  C:\Users\blue\AppData\Local\Temp\ccjNjakL.s 			page 45


 661:Core/Src/usart.c ****     HAL_GPIO_DeInit(GPIOB, MV_USART3_TX_Pin|MV_USART3_RX_Pin);
 662:Core/Src/usart.c **** 
 663:Core/Src/usart.c ****     /* USART3 DMA DeInit */
 664:Core/Src/usart.c ****     HAL_DMA_DeInit(uartHandle->hdmarx);
 665:Core/Src/usart.c **** 
 666:Core/Src/usart.c ****     /* USART3 interrupt Deinit */
 667:Core/Src/usart.c ****     HAL_NVIC_DisableIRQ(USART3_IRQn);
 668:Core/Src/usart.c ****   /* USER CODE BEGIN USART3_MspDeInit 1 */
 669:Core/Src/usart.c **** 
 670:Core/Src/usart.c ****   /* USER CODE END USART3_MspDeInit 1 */
 671:Core/Src/usart.c ****   }
 672:Core/Src/usart.c **** }
 1525              		.loc 1 672 1 view .LVU555
 1526 0024 10BD     		pop	{r4, pc}
 1527              	.LVL82:
 1528              	.L104:
 561:Core/Src/usart.c **** 
 1529              		.loc 1 561 5 is_stmt 1 view .LVU556
 1530 0026 384A     		ldr	r2, .L109+20
 1531 0028 D2F8E830 		ldr	r3, [r2, #232]
 1532 002c 23F40023 		bic	r3, r3, #524288
 1533 0030 C2F8E830 		str	r3, [r2, #232]
 567:Core/Src/usart.c **** 
 1534              		.loc 1 567 5 view .LVU557
 1535 0034 4FF44061 		mov	r1, #3072
 1536 0038 3448     		ldr	r0, .L109+24
 1537              	.LVL83:
 567:Core/Src/usart.c **** 
 1538              		.loc 1 567 5 is_stmt 0 view .LVU558
 1539 003a FFF7FEFF 		bl	HAL_GPIO_DeInit
 1540              	.LVL84:
 570:Core/Src/usart.c **** 
 1541              		.loc 1 570 5 is_stmt 1 view .LVU559
 1542 003e D4F88000 		ldr	r0, [r4, #128]
 1543 0042 FFF7FEFF 		bl	HAL_DMA_DeInit
 1544              	.LVL85:
 573:Core/Src/usart.c ****   /* USER CODE BEGIN UART4_MspDeInit 1 */
 1545              		.loc 1 573 5 view .LVU560
 1546 0046 3420     		movs	r0, #52
 1547 0048 FFF7FEFF 		bl	HAL_NVIC_DisableIRQ
 1548              	.LVL86:
 1549 004c EAE7     		b	.L97
 1550              	.LVL87:
 1551              	.L105:
 584:Core/Src/usart.c **** 
 1552              		.loc 1 584 5 view .LVU561
 1553 004e 2E4A     		ldr	r2, .L109+20
 1554 0050 D2F8E830 		ldr	r3, [r2, #232]
 1555 0054 23F48013 		bic	r3, r3, #1048576
 1556 0058 C2F8E830 		str	r3, [r2, #232]
 590:Core/Src/usart.c **** 
 1557              		.loc 1 590 5 view .LVU562
 1558 005c 4FF48051 		mov	r1, #4096
 1559 0060 2A48     		ldr	r0, .L109+24
 1560              	.LVL88:
 590:Core/Src/usart.c **** 
 1561              		.loc 1 590 5 is_stmt 0 view .LVU563
ARM GAS  C:\Users\blue\AppData\Local\Temp\ccjNjakL.s 			page 46


 1562 0062 FFF7FEFF 		bl	HAL_GPIO_DeInit
 1563              	.LVL89:
 592:Core/Src/usart.c **** 
 1564              		.loc 1 592 5 is_stmt 1 view .LVU564
 1565 0066 0421     		movs	r1, #4
 1566 0068 2948     		ldr	r0, .L109+28
 1567 006a FFF7FEFF 		bl	HAL_GPIO_DeInit
 1568              	.LVL90:
 595:Core/Src/usart.c **** 
 1569              		.loc 1 595 5 view .LVU565
 1570 006e D4F88000 		ldr	r0, [r4, #128]
 1571 0072 FFF7FEFF 		bl	HAL_DMA_DeInit
 1572              	.LVL91:
 598:Core/Src/usart.c ****   /* USER CODE BEGIN UART5_MspDeInit 1 */
 1573              		.loc 1 598 5 view .LVU566
 1574 0076 3520     		movs	r0, #53
 1575 0078 FFF7FEFF 		bl	HAL_NVIC_DisableIRQ
 1576              	.LVL92:
 1577 007c D2E7     		b	.L97
 1578              	.LVL93:
 1579              	.L106:
 609:Core/Src/usart.c **** 
 1580              		.loc 1 609 5 view .LVU567
 1581 007e 224A     		ldr	r2, .L109+20
 1582 0080 D2F8F030 		ldr	r3, [r2, #240]
 1583 0084 23F01003 		bic	r3, r3, #16
 1584 0088 C2F8F030 		str	r3, [r2, #240]
 615:Core/Src/usart.c **** 
 1585              		.loc 1 615 5 view .LVU568
 1586 008c 4FF4C061 		mov	r1, #1536
 1587 0090 2048     		ldr	r0, .L109+32
 1588              	.LVL94:
 615:Core/Src/usart.c **** 
 1589              		.loc 1 615 5 is_stmt 0 view .LVU569
 1590 0092 FFF7FEFF 		bl	HAL_GPIO_DeInit
 1591              	.LVL95:
 618:Core/Src/usart.c **** 
 1592              		.loc 1 618 5 is_stmt 1 view .LVU570
 1593 0096 D4F88000 		ldr	r0, [r4, #128]
 1594 009a FFF7FEFF 		bl	HAL_DMA_DeInit
 1595              	.LVL96:
 621:Core/Src/usart.c ****   /* USER CODE BEGIN USART1_MspDeInit 1 */
 1596              		.loc 1 621 5 view .LVU571
 1597 009e 2520     		movs	r0, #37
 1598 00a0 FFF7FEFF 		bl	HAL_NVIC_DisableIRQ
 1599              	.LVL97:
 1600 00a4 BEE7     		b	.L97
 1601              	.LVL98:
 1602              	.L107:
 632:Core/Src/usart.c **** 
 1603              		.loc 1 632 5 view .LVU572
 1604 00a6 184A     		ldr	r2, .L109+20
 1605 00a8 D2F8E830 		ldr	r3, [r2, #232]
 1606 00ac 23F40033 		bic	r3, r3, #131072
 1607 00b0 C2F8E830 		str	r3, [r2, #232]
 638:Core/Src/usart.c **** 
 1608              		.loc 1 638 5 view .LVU573
ARM GAS  C:\Users\blue\AppData\Local\Temp\ccjNjakL.s 			page 47


 1609 00b4 0C21     		movs	r1, #12
 1610 00b6 1748     		ldr	r0, .L109+32
 1611              	.LVL99:
 638:Core/Src/usart.c **** 
 1612              		.loc 1 638 5 is_stmt 0 view .LVU574
 1613 00b8 FFF7FEFF 		bl	HAL_GPIO_DeInit
 1614              	.LVL100:
 641:Core/Src/usart.c **** 
 1615              		.loc 1 641 5 is_stmt 1 view .LVU575
 1616 00bc D4F88000 		ldr	r0, [r4, #128]
 1617 00c0 FFF7FEFF 		bl	HAL_DMA_DeInit
 1618              	.LVL101:
 644:Core/Src/usart.c ****   /* USER CODE BEGIN USART2_MspDeInit 1 */
 1619              		.loc 1 644 5 view .LVU576
 1620 00c4 2620     		movs	r0, #38
 1621 00c6 FFF7FEFF 		bl	HAL_NVIC_DisableIRQ
 1622              	.LVL102:
 1623 00ca ABE7     		b	.L97
 1624              	.LVL103:
 1625              	.L108:
 655:Core/Src/usart.c **** 
 1626              		.loc 1 655 5 view .LVU577
 1627 00cc 0E4A     		ldr	r2, .L109+20
 1628 00ce D2F8E830 		ldr	r3, [r2, #232]
 1629 00d2 23F48023 		bic	r3, r3, #262144
 1630 00d6 C2F8E830 		str	r3, [r2, #232]
 661:Core/Src/usart.c **** 
 1631              		.loc 1 661 5 view .LVU578
 1632 00da 4FF44061 		mov	r1, #3072
 1633 00de 0E48     		ldr	r0, .L109+36
 1634              	.LVL104:
 661:Core/Src/usart.c **** 
 1635              		.loc 1 661 5 is_stmt 0 view .LVU579
 1636 00e0 FFF7FEFF 		bl	HAL_GPIO_DeInit
 1637              	.LVL105:
 664:Core/Src/usart.c **** 
 1638              		.loc 1 664 5 is_stmt 1 view .LVU580
 1639 00e4 D4F88000 		ldr	r0, [r4, #128]
 1640 00e8 FFF7FEFF 		bl	HAL_DMA_DeInit
 1641              	.LVL106:
 667:Core/Src/usart.c ****   /* USER CODE BEGIN USART3_MspDeInit 1 */
 1642              		.loc 1 667 5 view .LVU581
 1643 00ec 2720     		movs	r0, #39
 1644 00ee FFF7FEFF 		bl	HAL_NVIC_DisableIRQ
 1645              	.LVL107:
 1646              		.loc 1 672 1 is_stmt 0 view .LVU582
 1647 00f2 97E7     		b	.L97
 1648              	.L110:
 1649              		.align	2
 1650              	.L109:
 1651 00f4 004C0040 		.word	1073761280
 1652 00f8 00500040 		.word	1073762304
 1653 00fc 00100140 		.word	1073811456
 1654 0100 00440040 		.word	1073759232
 1655 0104 00480040 		.word	1073760256
 1656 0108 00440258 		.word	1476543488
 1657 010c 00080258 		.word	1476528128
ARM GAS  C:\Users\blue\AppData\Local\Temp\ccjNjakL.s 			page 48


 1658 0110 000C0258 		.word	1476529152
 1659 0114 00000258 		.word	1476526080
 1660 0118 00040258 		.word	1476527104
 1661              		.cfi_endproc
 1662              	.LFE150:
 1664              		.global	hdma_usart3_rx
 1665              		.global	hdma_usart2_rx
 1666              		.global	hdma_usart1_rx
 1667              		.global	hdma_uart5_rx
 1668              		.global	hdma_uart4_rx
 1669              		.global	huart3
 1670              		.global	huart2
 1671              		.global	huart1
 1672              		.global	huart5
 1673              		.global	huart4
 1674              		.section	.bss.hdma_uart4_rx,"aw",%nobits
 1675              		.align	2
 1676              		.set	.LANCHOR5,. + 0
 1679              	hdma_uart4_rx:
 1680 0000 00000000 		.space	120
 1680      00000000 
 1680      00000000 
 1680      00000000 
 1680      00000000 
 1681              		.section	.bss.hdma_uart5_rx,"aw",%nobits
 1682              		.align	2
 1683              		.set	.LANCHOR6,. + 0
 1686              	hdma_uart5_rx:
 1687 0000 00000000 		.space	120
 1687      00000000 
 1687      00000000 
 1687      00000000 
 1687      00000000 
 1688              		.section	.bss.hdma_usart1_rx,"aw",%nobits
 1689              		.align	2
 1690              		.set	.LANCHOR7,. + 0
 1693              	hdma_usart1_rx:
 1694 0000 00000000 		.space	120
 1694      00000000 
 1694      00000000 
 1694      00000000 
 1694      00000000 
 1695              		.section	.bss.hdma_usart2_rx,"aw",%nobits
 1696              		.align	2
 1697              		.set	.LANCHOR8,. + 0
 1700              	hdma_usart2_rx:
 1701 0000 00000000 		.space	120
 1701      00000000 
 1701      00000000 
 1701      00000000 
 1701      00000000 
 1702              		.section	.bss.hdma_usart3_rx,"aw",%nobits
 1703              		.align	2
 1704              		.set	.LANCHOR9,. + 0
 1707              	hdma_usart3_rx:
 1708 0000 00000000 		.space	120
 1708      00000000 
ARM GAS  C:\Users\blue\AppData\Local\Temp\ccjNjakL.s 			page 49


 1708      00000000 
 1708      00000000 
 1708      00000000 
 1709              		.section	.bss.huart1,"aw",%nobits
 1710              		.align	2
 1711              		.set	.LANCHOR2,. + 0
 1714              	huart1:
 1715 0000 00000000 		.space	148
 1715      00000000 
 1715      00000000 
 1715      00000000 
 1715      00000000 
 1716              		.section	.bss.huart2,"aw",%nobits
 1717              		.align	2
 1718              		.set	.LANCHOR3,. + 0
 1721              	huart2:
 1722 0000 00000000 		.space	148
 1722      00000000 
 1722      00000000 
 1722      00000000 
 1722      00000000 
 1723              		.section	.bss.huart3,"aw",%nobits
 1724              		.align	2
 1725              		.set	.LANCHOR4,. + 0
 1728              	huart3:
 1729 0000 00000000 		.space	148
 1729      00000000 
 1729      00000000 
 1729      00000000 
 1729      00000000 
 1730              		.section	.bss.huart4,"aw",%nobits
 1731              		.align	2
 1732              		.set	.LANCHOR0,. + 0
 1735              	huart4:
 1736 0000 00000000 		.space	148
 1736      00000000 
 1736      00000000 
 1736      00000000 
 1736      00000000 
 1737              		.section	.bss.huart5,"aw",%nobits
 1738              		.align	2
 1739              		.set	.LANCHOR1,. + 0
 1742              	huart5:
 1743 0000 00000000 		.space	148
 1743      00000000 
 1743      00000000 
 1743      00000000 
 1743      00000000 
 1744              		.text
 1745              	.Letext0:
 1746              		.file 2 "d:\\rm\\arm-gnu-toolchian\\arm-none-eabi\\include\\machine\\_default_types.h"
 1747              		.file 3 "d:\\rm\\arm-gnu-toolchian\\arm-none-eabi\\include\\sys\\_stdint.h"
 1748              		.file 4 "Drivers/CMSIS/Device/ST/STM32H7xx/Include/stm32h743xx.h"
 1749              		.file 5 "Drivers/STM32H7xx_HAL_Driver/Inc/stm32h7xx_hal_def.h"
 1750              		.file 6 "Drivers/STM32H7xx_HAL_Driver/Inc/stm32h7xx_hal_rcc_ex.h"
 1751              		.file 7 "Drivers/STM32H7xx_HAL_Driver/Inc/stm32h7xx_hal_gpio.h"
 1752              		.file 8 "Drivers/STM32H7xx_HAL_Driver/Inc/stm32h7xx_hal_dma.h"
ARM GAS  C:\Users\blue\AppData\Local\Temp\ccjNjakL.s 			page 50


 1753              		.file 9 "Drivers/STM32H7xx_HAL_Driver/Inc/stm32h7xx_hal_uart.h"
 1754              		.file 10 "Core/Inc/usart.h"
 1755              		.file 11 "Drivers/STM32H7xx_HAL_Driver/Inc/stm32h7xx_hal_cortex.h"
 1756              		.file 12 "Core/Inc/main.h"
 1757              		.file 13 "Drivers/STM32H7xx_HAL_Driver/Inc/stm32h7xx_hal_uart_ex.h"
 1758              		.file 14 "<built-in>"
ARM GAS  C:\Users\blue\AppData\Local\Temp\ccjNjakL.s 			page 51

